################################################################################
#                                                                              #
#      IAR Universal Linker V5.0.2.5/W32                                       #
#                                                                              #
#           Link time     =  28/Sep/2011  15:06:00                             #
#           Target CPU    =  MAXQ                                              #
#           List file     =  obj\coolriver_rev1\lagavulin_partial.map          #
#           Output file 1 =  C:\workspace\perforce\lagavulin\armos\rocket\obj\ #
#                            coolriver_rev1\lagavulin_partial.out              #
#                            Format: intel-extended                            #
#           Output file 2 =  C:\workspace\perforce\lagavulin\armos\rocket\obj\ #
#                            coolriver_rev1\lagavulin_partial.d66              #
#                            Format: debug                                     #
#                            UBROF version 10.0.3                              #
#                            Using library modules for C-SPY (-rt)             #
#           Command line  =  -S -f scatter/lagavulin_lnkmq31.xcl (-cmaxq       #
#                            -Z(CODE)RESET=6000-601B -Z(CODE)DEBUG=601C-603F   #
#                            -Z(CODE)INTVEC=6040-613F                          #
#                            -Z(CODE)RCODE=6140-FFFF                           #
#                            -P(CODE)DATA16_C,DATA8_ID,DATA16_ID,CHECKSUM,CONS #
#                            T                                                 #
#                            -P(CODE)CODE=6140-FFFF                            #
#                            -P(CODE)FARCODE=10000-1FFFF                       #
#                            -P(CODE)LCODE=6140-1FFFF                          #
#                            -Z(CODE)PRIMARY_CODE=6140-11FFF                   #
#                            -Z(CODE)SECONDARY_CODE=12000-1FFFF                #
#                            -Z(CODE)SYS_SECTOR=140-3FFF                       #
#                            -Z(CODE)ULDR_SECTOR=4000-5FFF                     #
#                            -Z(CODE)UAPP_SECTOR=6000-1FFFF                    #
#                            -Z(CODE)UPWD_SECTOR=6020-603F                     #
#                            -Z(CODE)BOOT_MANAGER=3E00-3FFF                    #
#                            -Z(CODE)BOOT_IMAGE_INFO=11FEA-11FFB               #
#                            -Z(CODE)APP_IMAGE_INFO=1FFEA-1FFFB                #
#                            -Z(CODE)BOOT_LOADER_MSG=1FFFC-1FFFF               #
#                            -Z(DATA)DATA16_I,DATA16_Z,DATA16_N=A2-1FC0        #
#                            -Z(DATA)CSTACK+_CSTACK_SIZE#800-1FC0              #
#                            -Z(DATA)HEAP+_HEAP_SIZE=800-1FC0                  #
#                            -D_CSTACK_SIZE=1F4 -D_HEAP_SIZE=1F4               #
#                            -D?UTIL_MOVE_DP0=10026                            #
#                            -D?UTIL_MOVE_DP0_INC=1002A                        #
#                            -D?UTIL_MOVE_DP0_DEC=1002E                        #
#                            -D?UTIL_MOVE_DP1=10032                            #
#                            -D?UTIL_MOVE_DP1_INC=10036                        #
#                            -D?UTIL_MOVE_DP1_DEC=1003A                        #
#                            -D?UTIL_MOVE_FP=1003E -D?UTIL_MOVE_FP_INC=10042   #
#                            -D?UTIL_MOVE_FP_DEC=10046 -D?UTIL_CRC16=10052     #
#                            -D?UTIL_FLASH_WRITE=1005E                         #
#                            -D?UTIL_FLASH_ERASE_PAGE=10062)                   #
#                            -Iiarmaxq230/lib obj/coolriver_rev1/init.o        #
#                            obj/coolriver_rev1/timer_mux.o                    #
#                            obj/coolriver_rev1/eventlog.o                     #
#                            obj/coolriver_rev1/msgque.o                       #
#                            obj/coolriver_rev1/hostctrl_common.o              #
#                            obj/coolriver_rev1/hostctrl_omap4430.o            #
#                            obj/coolriver_rev1/delay.o                        #
#                            obj/coolriver_rev1/lagavulin_metrics.o            #
#                            obj/coolriver_rev1/lagavulin_gpio.o               #
#                            obj/coolriver_rev1/lagavulin_misc.o               #
#                            obj/coolriver_rev1/lagavulin_timer.o              #
#                            obj/coolriver_rev1/lagavulin_api.o                #
#                            obj/coolriver_rev1/lagavulin_i2c.o                #
#                            obj/coolriver_rev1/lagavulin_slowclock.o          #
#                            obj/coolriver_rev1/lagavulin_spi.o                #
#                            obj/coolriver_rev1/mq31_flash.o                   #
#                            obj/coolriver_rev1/lagavulin_pmic_intctrl.o       #
#                            obj/coolriver_rev1/lagavulin_intvector.o          #
#                            obj/coolriver_rev1/lagavulin_updater.o            #
#                            obj/coolriver_rev1/lagavulin_crc.o                #
#                            obj/coolriver_rev1/lagavulin_adc_hw.o             #
#                            obj/coolriver_rev1/mq31_inout.o                   #
#                            obj/coolriver_rev1/app_stubs.o cstartup_usr.r66   #
#                            mgLib.r66 clib/clmaxq68mllc.r66 -l                #
#                            obj/coolriver_rev1/lagavulin_partial.map -xms     #
#                            -Ointel-extended=obj/coolriver_rev1/lagavulin_par #
#                            tial.out                                          #
#                            -rt                                               #
#                                                                              #
#                           Copyright (C) 1987-2010 IAR Systems AB.            #
################################################################################





                ****************************************
                *                                      *
                *           CROSS REFERENCE            *
                *                                      *
                ****************************************

                  There are no program entries.




                ****************************************
                *                                      *
                *            RUNTIME MODEL             *
                *                                      *
                ****************************************

  __accumulators  = 16+
  __code_model    = l
  __const_in_code = 1
  __cpu_core      = MAXQ68
  __data_model    = l
  __rt_version    = 3



                ****************************************
                *                                      *
                *              MODULE MAP              *
                *                                      *
                ****************************************


  DEFINED ABSOLUTE ENTRIES
    *************************************************************************

  DEFINED ABSOLUTE ENTRIES
  PROGRAM MODULE, NAME : ?ABS_ENTRY_MOD

Absolute parts
           ENTRY                   ADDRESS         REF BY
           =====                   =======         ======
           ?UTIL_FLASH_ERASE_PAGE
                                   00010062        flash_erasePage (flash)
           ?UTIL_FLASH_WRITE       0001005E        flash_writeWord (flash)
           ?UTIL_CRC16             00010052        flash_crc (flash)
           ?UTIL_MOVE_FP_DEC       00010046 
           ?UTIL_MOVE_FP_INC       00010042 
           ?UTIL_MOVE_FP           0001003E 
           ?UTIL_MOVE_DP1_DEC      0001003A        Segment part 50 (mgLib)
                                                   Segment part 78 (mgLib)
                                                   Segment part 83 (mgLib)
           ?UTIL_MOVE_DP1_INC      00010036        Segment part 50 (mgLib)
                                                   Segment part 53 (mgLib)
                                                   Segment part 79 (mgLib)
                                                   Segment part 83 (mgLib)
           ?UTIL_MOVE_DP1          00010032        ApiRegWrite (lagavulin_api)
                                                   ApiStopReceived (lagavulin_api)
                                                   CodeUpdateStateInit (lagavulin_updater)
                                                   ExecuteCall (msgque)
                                                   GpioHandler (lagavulin_gpio)
                                                   IsImageValid (lagavulin_updater)
                                                   LagavulinRegRead (lagavulin_api)
                                                   PmicInterruptHandlerReal (lagavulin_pmic_intctrl)
                                                   ProcessUpdateCommand (lagavulin_updater)
                                                   Segment part 102 (mgLib)
                                                   Segment part 44 (mgLib)
                                                   SupplySequenceRunInternal (hostctrl_common)
                                                   i2cIsrHandler (lagavulin_i2c)
                                                   i2cMasterIsr (lagavulin_i2c)
           ?UTIL_MOVE_DP0_DEC      0001002E 
           ?UTIL_MOVE_DP0_INC      0001002A 
           ?UTIL_MOVE_DP0          00010026        HostCtrlDisableSupplies (hostctrl_common)
                                                   HostCtrlInitiateReset (hostctrl_common)
                                                   I2cRomInit (lagavulin_i2c)
                                                   LagavulinRegRead (lagavulin_api)
                                                   PmicInterruptDisable (lagavulin_pmic_intctrl)
                                                   PmicInterruptEnable (lagavulin_pmic_intctrl)
                                                   PmicRegisterIntHandler (lagavulin_pmic_intctrl)
                                                   SupplySequenceRunInternal (hostctrl_common)
                                                   exeModelGauge (mgLib)
                                                   i2cMasterIsr (lagavulin_i2c)
                                                   i2cSlaveRomIsr (lagavulin_i2c)
                                                   unSetTimer (timer_mux)
           _HEAP_SIZE              01F4 
           _CSTACK_SIZE            01F4 
    *************************************************************************

  FILE NAME : C:\workspace\perforce\lagavulin\armos\rocket\obj\coolriver_rev1\init.o
  PROGRAM MODULE, NAME : init

  SEGMENTS IN THE MODULE
  ======================
<CODE,LCODE> 1 (was LCODE)
  Relative segment, address: CODE C534 - C57D (0x4a bytes), align: 1
  Segment part 2.             Intra module refs:   main
           LOCAL                   ADDRESS         
           =====                   =======         
           ChargerHandler          C534 
               calls direct
               CSTACK = 00000000 ( 00000002 )
    -------------------------------------------------------------------------
<CODE,LCODE> 1 (was LCODE)
  Relative segment, address: CODE C9A2 - C9AF (0xe bytes), align: 1
  Segment part 3.             Intra module refs:   main
           ENTRY                   ADDRESS         REF BY
           =====                   =======         ======
           SwitchToXtal            C9A2 
               calls direct
               CSTACK = 00000000 ( 00000002 )
    -------------------------------------------------------------------------
<CODE,LCODE> 1 (was LCODE)
  Relative segment, address: CODE B596 - B671 (0xdc bytes), align: 1
  Segment part 4.
           ENTRY                   ADDRESS         REF BY
           =====                   =======         ======
           main                    B596            __MAIN_CALL (__MAIN_CALL)
               calls direct
               CSTACK = 00000000 ( 00000002 )

    *************************************************************************

  FILE NAME : C:\workspace\perforce\lagavulin\armos\rocket\obj\coolriver_rev1\timer_mux.o
  PROGRAM MODULE, NAME : timer_mux

  SEGMENTS IN THE MODULE
  ======================
DATA16_SFR
  Relative segment, address: IDATA 020A - 020A (0x1 bytes), align: 0
  Segment part 1. ROOT.
           ENTRY                   ADDRESS         REF BY
           =====                   =======         ======
           IC_REG8                 020A 
    -------------------------------------------------------------------------
DATA16_Z
  Relative segment, address: DATA 00EA - 0107 (0x1e bytes), align: 1
  Segment part 3.             Intra module refs:   SetTimer
                                                   StopTimer
                                                   TimerInit
                                                   unSetTimer
           LOCAL                   ADDRESS         
           =====                   =======         
           IsSet                   00EA 
    -------------------------------------------------------------------------
DATA16_Z
  Relative segment, address: DATA 0108 - 0143 (0x3c bytes), align: 1
  Segment part 4.             Intra module refs:   SetTimer
                                                   StopTimer
                                                   expireMuxTimers
                                                   unSetTimer
           LOCAL                   ADDRESS         
           =====                   =======         
           MatchValue              0108 
    -------------------------------------------------------------------------
DATA16_Z
  Relative segment, address: DATA 0144 - 0161 (0x1e bytes), align: 1
  Segment part 5.             Intra module refs:   RegisterTimerExpiry
                                                   TimerInit
                                                   expireMuxTimers
           LOCAL                   ADDRESS         
           =====                   =======         
           TimerHandler            0144 
    -------------------------------------------------------------------------
DATA16_Z
  Relative segment, address: DATA 0162 - 017F (0x1e bytes), align: 1
  Segment part 6.             Intra module refs:   RegisterTimerExpiry
                                                   expireMuxTimers
           LOCAL                   ADDRESS         
           =====                   =======         
           HandlerData             0162 
    -------------------------------------------------------------------------
DATA16_Z
  Relative segment, address: DATA 0446 - 0454 (0xf bytes), align: 0
  Segment part 7.             Intra module refs:   SetTimer
                                                   StopTimer
                                                   expireMuxTimers
                                                   unSetTimer
           LOCAL                   ADDRESS         
           =====                   =======         
           pq                      0446 
    -------------------------------------------------------------------------
DATA16_Z
  Relative segment, address: DATA 0180 - 0181 (0x2 bytes), align: 1
  Segment part 8.             Intra module refs:   SetTimer
                                                   StopTimer
                                                   TimerInit
                                                   expireMuxTimers
                                                   unSetTimer
           LOCAL                   ADDRESS         
           =====                   =======         
           numSet                  0180 
    -------------------------------------------------------------------------
<CODE,LCODE> 1 (was LCODE)
  Relative segment, address: CODE 8C00 - 8C25 (0x26 bytes), align: 1
  Segment part 9.             Intra module refs:   expireMuxTimers
           LOCAL                   ADDRESS         
           =====                   =======         
           betweeneq               8C00 
               CSTACK = 00000000 ( 00000002 )
    -------------------------------------------------------------------------
<CODE,LCODE> 1 (was LCODE)
  Relative segment, address: CODE 8C26 - 8C4B (0x26 bytes), align: 1
  Segment part 10.            Intra module refs:   SetTimer
                                                   unSetTimer
           LOCAL                   ADDRESS         
           =====                   =======         
           between                 8C26 
               CSTACK = 00000000 ( 00000002 )
    -------------------------------------------------------------------------
<CODE,LCODE> 1 (was LCODE)
  Relative segment, address: CODE 8C4C - 8C6F (0x24 bytes), align: 1
  Segment part 11.            Intra module refs:   StopTimer
                                                   expireMuxTimers
           LOCAL                   ADDRESS         
           =====                   =======         
           setEarliest             8C4C 
               calls direct
               CSTACK = 00000000 ( 00000002 )
    -------------------------------------------------------------------------
<CODE,LCODE> 1 (was LCODE)
  Relative segment, address: CODE 8C70 - 8C71 (0x2 bytes), align: 1
  Segment part 12.            Intra module refs:   RegisterTimerExpiry
                                                   TimerInit
           LOCAL                   ADDRESS         
           =====                   =======         
           TimerCallbackFailure    8C70 
               CSTACK = 00000000 ( 00000002 )
    -------------------------------------------------------------------------
<CODE,LCODE> 1 (was LCODE)
  Relative segment, address: CODE 8C72 - 8EC5 (0x254 bytes), align: 1
  Segment part 13.            Intra module refs:   StopTimer
                                                   expireMuxTimers
           LOCAL                   ADDRESS         
           =====                   =======         
           unSetTimer              8C72 
               calls direct
               CSTACK = 00000000 ( 0000000A )
    -------------------------------------------------------------------------
<CODE,LCODE> 1 (was LCODE)
  Relative segment, address: CODE 8EC6 - 8FE5 (0x120 bytes), align: 1
  Segment part 14.            Intra module refs:   SetTimer
                                                   StopTimer
                                                   TimerInit
           LOCAL                   ADDRESS         
           =====                   =======         
           expireMuxTimers         8EC6 
               calls direct and indirect
               CSTACK = 00000000 ( 00000008 )
    -------------------------------------------------------------------------
<CODE,LCODE> 1 (was LCODE)
  Relative segment, address: CODE 8FE6 - 91B5 (0x1d0 bytes), align: 1
  Segment part 15.
           ENTRY                   ADDRESS         REF BY
           =====                   =======         ======
           SetTimer                8FE6            AdcRawCb (lagavulin_adc_hw)
                                                   HostCtrlTimerExpiry (hostctrl_omap4430)
                                                   SupplySequenceRunInternal (hostctrl_common)
                                                   main (init)
               calls direct
               CSTACK = 00000000 ( 00000010 )
    -------------------------------------------------------------------------
<CODE,LCODE> 1 (was LCODE)
  Relative segment, address: CODE 91B6 - 92AB (0xf6 bytes), align: 1
  Segment part 16.            Intra module refs:   SetTimer
           ENTRY                   ADDRESS         REF BY
           =====                   =======         ======
           StopTimer               91B6 
               calls direct
               CSTACK = 00000000 ( 0000000A )
    -------------------------------------------------------------------------
<CODE,LCODE> 1 (was LCODE)
  Relative segment, address: CODE C41A - C479 (0x60 bytes), align: 1
  Segment part 17.
           ENTRY                   ADDRESS         REF BY
           =====                   =======         ======
           RegisterTimerExpiry     C41A            AdcInitHw (lagavulin_adc_hw)
                                                   HostCtrlInit (hostctrl_common)
                                                   HostCtrlInitProc (hostctrl_omap4430)
                                                   main (init)
               CSTACK = 00000000 ( 00000002 )
    -------------------------------------------------------------------------
<CODE,LCODE> 1 (was LCODE)
  Relative segment, address: CODE C47A - C4D7 (0x5e bytes), align: 1
  Segment part 18.
           ENTRY                   ADDRESS         REF BY
           =====                   =======         ======
           TimerInit               C47A            main (init)
               calls direct
               CSTACK = 00000000 ( 00000002 )

    *************************************************************************

  FILE NAME : C:\workspace\perforce\lagavulin\armos\rocket\obj\coolriver_rev1\eventlog.o
  PROGRAM MODULE, NAME : eventlog

  SEGMENTS IN THE MODULE
  ======================
DATA16_Z
  Relative segment, address: DATA 0182 - 0287 (0x106 bytes), align: 1
  Segment part 4.             Intra module refs:   SavedEventLogExists
           ENTRY                   ADDRESS         REF BY
           =====                   =======         ======
           SavedEventLog           0182 
    -------------------------------------------------------------------------
<CODE,LCODE> 1 (was LCODE)
  Relative segment, address: CODE CA5A - CA5B (0x2 bytes), align: 1
  Segment part 8.
           ENTRY                   ADDRESS         REF BY
           =====                   =======         ======
           EventLogInit            CA5A            HostCtrlInitiateReset (hostctrl_common)
                                                   main (init)
               CSTACK = 00000000 ( 00000002 )
    -------------------------------------------------------------------------
<CODE,LCODE> 1 (was LCODE)
  Relative segment, address: CODE C978 - C985 (0xe bytes), align: 1
  Segment part 9.
           ENTRY                   ADDRESS         REF BY
           =====                   =======         ======
           EventLogCapture         C978            LagavulinRegStopReceived (lagavulin_api)
               CSTACK = 00000000 ( 00000002 )
    -------------------------------------------------------------------------
<CODE,LCODE> 1 (was LCODE)
  Relative segment, address: CODE C986 - C993 (0xe bytes), align: 1
  Segment part 10.
           ENTRY                   ADDRESS         REF BY
           =====                   =======         ======
           EventLogAdd             C986            AdcCompleteIsrHw (lagavulin_adc_hw)
                                                   CodeUpdateStateInit (lagavulin_updater)
                                                   ConfigureXt1External (lagavulin_slowclock)
                                                   ExecuteCall (msgque)
                                                   HostCtrlTimerExpiry (hostctrl_omap4430)
                                                   I2cInit (lagavulin_i2c)
                                                   I2cRomInit (lagavulin_i2c)
                                                   PmicHPDHandler (hostctrl_omap4430)
                                                   PmicInterruptHandlerReal (lagavulin_pmic_intctrl)
                                                   PowerFaultIsr (lagavulin_misc)
                                                   ProcessUpdateCommand (lagavulin_updater)
                                                   QueueCallInt (msgque)
                                                   RimInitiateReset (lagavulin_misc)
                                                   WdtInit (lagavulin_misc)
                                                   WriteBootloaderMsg (lagavulin_updater)
                                                   i2c0RxTxIsr (lagavulin_i2c)
                                                   i2c1RxTxIsr (lagavulin_i2c)
                                                   i2c2RxTxIsr (lagavulin_i2c)
                                                   i2cMasterIsr (lagavulin_i2c)
                                                   main (init)
                                                   unregisteredHandler (lagavulin_intvector)
               CSTACK = 00000000 ( 00000002 )
    -------------------------------------------------------------------------
<CODE,LCODE> 1 (was LCODE)
  Relative segment, address: CODE C994 - C9A1 (0xe bytes), align: 1
  Segment part 11.
           ENTRY                   ADDRESS         REF BY
           =====                   =======         ======
           EventLogAddN            C994            ApiInterruptHost (lagavulin_api)
                                                   PmicFaultHandler (hostctrl_omap4430)
                                                   PmicInterruptHandlerReal (lagavulin_pmic_intctrl)
                                                   ProcessUpdateCommand (lagavulin_updater)
                                                   QueueCallInt (msgque)
                                                   SetTimer (timer_mux)
                                                   StopTimer (timer_mux)
                                                   WdtInit (lagavulin_misc)
                                                   expireMuxTimers (timer_mux)
                                                   nreswarmIsr (hostctrl_omap4430)
               CSTACK = 00000000 ( 00000002 )
    -------------------------------------------------------------------------
<CODE,LCODE> 1 (was LCODE)
  Relative segment, address: CODE CA54 - CA55 (0x2 bytes), align: 1
  Segment part 12.
           ENTRY                   ADDRESS         REF BY
           =====                   =======         ======
           SavedEventLogRewind     CA54            LagavulinRegStopReceived (lagavulin_api)
               CSTACK = 00000000 ( 00000002 )
    -------------------------------------------------------------------------
<CODE,LCODE> 1 (was LCODE)
  Relative segment, address: CODE CA20 - CA27 (0x8 bytes), align: 1
  Segment part 13.
           ENTRY                   ADDRESS         REF BY
           =====                   =======         ======
           SavedEventLogRead       CA20            LagavulinRegRead (lagavulin_api)
               CSTACK = 00000000 ( 00000002 )
    -------------------------------------------------------------------------
<CODE,LCODE> 1 (was LCODE)
  Relative segment, address: CODE C848 - C861 (0x1a bytes), align: 1
  Segment part 14.
           ENTRY                   ADDRESS         REF BY
           =====                   =======         ======
           SavedEventLogExists     C848            LagavulinRegRead (lagavulin_api)
               CSTACK = 00000000 ( 00000002 )

    *************************************************************************

  FILE NAME : C:\workspace\perforce\lagavulin\armos\rocket\obj\coolriver_rev1\msgque.o
  PROGRAM MODULE, NAME : msgque

  SEGMENTS IN THE MODULE
  ======================
DATA16_Z
  Relative segment, address: DATA 0288 - 02C7 (0x40 bytes), align: 1
  Segment part 3.             Intra module refs:   ExecuteCall
                                                   QueueCallInt
           LOCAL                   ADDRESS         
           =====                   =======         
           qCalls                  0288 
    -------------------------------------------------------------------------
DATA16_Z
  Relative segment, address: DATA 0455 - 0455 (0x1 bytes), align: 0
  Segment part 4.             Intra module refs:   CallQueueInit
                                                   QueueCallInt
           LOCAL                   ADDRESS         
           =====                   =======         
           qHead                   0455 
    -------------------------------------------------------------------------
DATA16_Z
  Relative segment, address: DATA 0456 - 0456 (0x1 bytes), align: 0
  Segment part 5.             Intra module refs:   CallQueueInit
                                                   ExecuteCall
                                                   QueueCallInt
           LOCAL                   ADDRESS         
           =====                   =======         
           qTail                   0456 
    -------------------------------------------------------------------------
DATA16_Z
  Relative segment, address: DATA 0457 - 0457 (0x1 bytes), align: 0
  Segment part 6.             Intra module refs:   CallQueueInit
                                                   ExecuteCall
                                                   QueueCallInt
           LOCAL                   ADDRESS         
           =====                   =======         
           qCount                  0457 
    -------------------------------------------------------------------------
DATA16_Z
  Relative segment, address: DATA 02C8 - 02C9 (0x2 bytes), align: 1
  Segment part 7.             Intra module refs:   ExecuteCall
                                                   QueueCallInt
           ENTRY                   ADDRESS         REF BY
           =====                   =======         ======
           LastMsgQCall            02C8 
    -------------------------------------------------------------------------
<CODE,LCODE> 1 (was LCODE)
  Relative segment, address: CODE C8F8 - C90B (0x14 bytes), align: 1
  Segment part 8.
           ENTRY                   ADDRESS         REF BY
           =====                   =======         ======
           CallQueueInit           C8F8            main (init)
               CSTACK = 00000000 ( 00000002 )
    -------------------------------------------------------------------------
<CODE,LCODE> 1 (was LCODE)
  Relative segment, address: CODE B4A4 - B595 (0xf2 bytes), align: 1
  Segment part 9.
           ENTRY                   ADDRESS         REF BY
           =====                   =======         ======
           QueueCallInt            B4A4            ExternalPwrApplied (hostctrl_omap4430)
                                                   HostCtrlTimerExpiry (hostctrl_omap4430)
                                                   HostCtrlTimerHandler (hostctrl_omap4430)
                                                   LagavulinPmicStopReceived (lagavulin_api)
                                                   SupplySequenceRunInternal (hostctrl_common)
                                                   SwitchToXtal (init)
                                                   UpdaterStopReceived (lagavulin_updater)
               calls direct
               CSTACK = 00000000 ( 00000008 )
    -------------------------------------------------------------------------
<CODE,LCODE> 1 (was LCODE)
  Relative segment, address: CODE B81C - B8E3 (0xc8 bytes), align: 1
  Segment part 10.
           ENTRY                   ADDRESS         REF BY
           =====                   =======         ======
           ExecuteCall             B81C            main (init)
               calls direct and indirect
               CSTACK = 00000000 ( 00000006 )

    *************************************************************************

  FILE NAME : C:\workspace\perforce\lagavulin\armos\rocket\obj\coolriver_rev1\hostctrl_common.o
  PROGRAM MODULE, NAME : hostctrl_common

  SEGMENTS IN THE MODULE
  ======================
DATA16_SFR
  Relative segment, address: IDATA 014A - 014B (0x2 bytes), align: 0
  Segment part 1. ROOT.
           ENTRY                   ADDRESS         REF BY
           =====                   =======         ======
           RTCCFG_REG16            014A 
    -------------------------------------------------------------------------
DATA16_C
  Relative segment, address: CODE 6310 - 6311 (0x2 bytes), align: 0
  Segment part 3.             Intra module refs:   HostCtrlDisableSupplies
    -------------------------------------------------------------------------
DATA16_C
  Relative segment, address: CODE 6312 - 6313 (0x2 bytes), align: 0
  Segment part 4.             Intra module refs:   HostCtrlInitiateReset
    -------------------------------------------------------------------------
DATA16_C
  Relative segment, address: CODE 6314 - 6318 (0x5 bytes), align: 0
  Segment part 5.             Intra module refs:   HostCtrlPmicRegisterReset
           LOCAL                   ADDRESS         
           =====                   =======         
           SM_DFLT                 6314 
    -------------------------------------------------------------------------
DATA16_C
  Relative segment, address: CODE 6319 - 6330 (0x18 bytes), align: 0
  Segment part 6.             Intra module refs:   HostCtrlPmicRegisterReset
           LOCAL                   ADDRESS         
           =====                   =======         
           LDO_DFLT                6319 
    -------------------------------------------------------------------------
DATA16_C
  Relative segment, address: CODE 6188 - 61E7 (0x60 bytes), align: 1
  Segment part 7.             Intra module refs:   SupplySequenceRunInternal
           LOCAL                   ADDRESS         
           =====                   =======         
           SSEQ                    6188 
    -------------------------------------------------------------------------
DATA16_C
  Relative segment, address: CODE 6331 - 6331 (0x1 bytes), align: 0
  Segment part 8.             Intra module refs:   SupplySequenceRunInternal
           LOCAL                   ADDRESS         
           =====                   =======         
           SEQUENCE_SIZE           6331 
    -------------------------------------------------------------------------
DATA16_Z
  Relative segment, address: DATA 0458 - 0458 (0x1 bytes), align: 0
  Segment part 9.             Intra module refs:   SupplySequenceRunInternal
           LOCAL                   ADDRESS         
           =====                   =======         
           SeqPos                  0458 
    -------------------------------------------------------------------------
DATA16_I
  Relative segment, address: DATA 00A2 - 00A3 (0x2 bytes), align: 1
  Segment part 10.            Intra module refs:   SupplySequenceRun
                                                   SupplySequenceRunInternal
           LOCAL                   ADDRESS         
           =====                   =======         
           SeqDir                  00A2 
    -------------------------------------------------------------------------
DATA16_Z
  Relative segment, address: DATA 02CA - 02CB (0x2 bytes), align: 1
  Segment part 12.            Intra module refs:   HostCtrlInitiateReset
           LOCAL                   ADDRESS         
           =====                   =======         
           ResetInProgress         02CA 
    -------------------------------------------------------------------------
DATA16_Z
  Relative segment, address: DATA 02CC - 02CD (0x2 bytes), align: 1
  Segment part 13.            Intra module refs:   HostCtrlGetResetReason
                                                   HostCtrlInitiateReset
           LOCAL                   ADDRESS         
           =====                   =======         
           InitiateResetReason     02CC 
    -------------------------------------------------------------------------
DATA16_Z
  Relative segment, address: DATA 02CE - 02CF (0x2 bytes), align: 1
  Segment part 14.            Intra module refs:   HostCtrlGetResetFlags
                                                   HostCtrlInit
                                                   HostCtrlInitiateReset
                                                   SupplySequenceRunInternal
           LOCAL                   ADDRESS         
           =====                   =======         
           InitiateResetFlags      02CE 
    -------------------------------------------------------------------------
<CODE,LCODE> 1 (was LCODE)
  Relative segment, address: CODE 7716 - 7F03 (0x7ee bytes), align: 1
  Segment part 15.            Intra module refs:   HostCtrlInit
                                                   SupplySequenceRun
           LOCAL                   ADDRESS         
           =====                   =======         
           SupplySequenceRunInternal
                                   7716 
               calls direct
               CSTACK = 00000000 ( 00000002 )
    -------------------------------------------------------------------------
<CODE,LCODE> 1 (was LCODE)
  Relative segment, address: CODE 7F04 - 8103 (0x200 bytes), align: 1
  Segment part 16.
           ENTRY                   ADDRESS         REF BY
           =====                   =======         ======
           HostCtrlDisableSupplies
                                   7F04            HostCtrlStateInit (hostctrl_omap4430)
                                                   HostCtrlTimerExpiry (hostctrl_omap4430)
               calls direct
               CSTACK = 00000000 ( 00000008 )
    -------------------------------------------------------------------------
<CODE,LCODE> 1 (was LCODE)
  Relative segment, address: CODE 8104 - 8111 (0xe bytes), align: 1
  Segment part 17.            Intra module refs:   HostCtrlInitiateReset
           ENTRY                   ADDRESS         REF BY
           =====                   =======         ======
           SupplySequenceRun       8104            HostCtrlTimerExpiry (hostctrl_omap4430)
               calls direct
               CSTACK = 00000000 ( 00000002 )
    -------------------------------------------------------------------------
<CODE,LCODE> 1 (was LCODE)
  Relative segment, address: CODE 8112 - 813F (0x2e bytes), align: 1
  Segment part 18.
           ENTRY                   ADDRESS         REF BY
           =====                   =======         ======
           HostCtrlInit            8112            main (init)
               calls direct
               CSTACK = 00000000 ( 00000004 )
    -------------------------------------------------------------------------
<CODE,LCODE> 1 (was LCODE)
  Relative segment, address: CODE 8140 - 82E7 (0x1a8 bytes), align: 1
  Segment part 19.            Intra module refs:   HostCtrlInitiateReset
           ENTRY                   ADDRESS         REF BY
           =====                   =======         ======
           HostCtrlPmicRegisterReset
                                   8140            HostCtrlTimerExpiry (hostctrl_omap4430)
                                                   main (init)
               calls direct
               CSTACK = 00000000 ( 00000008 )
    -------------------------------------------------------------------------
<CODE,LCODE> 1 (was LCODE)
  Relative segment, address: CODE 82E8 - 833B (0x54 bytes), align: 1
  Segment part 20.            Intra module refs:   HostCtrlInitiateReset
                                                   HostCtrlPowerLost
           ENTRY                   ADDRESS         REF BY
           =====                   =======         ======
           HostCtrlGpioReset       82E8            HostCtrlStateInit (hostctrl_omap4430)
               calls direct
               CSTACK = 00000000 ( 00000004 )
    -------------------------------------------------------------------------
<CODE,LCODE> 1 (was LCODE)
  Relative segment, address: CODE 833C - 8343 (0x8 bytes), align: 1
  Segment part 21.
           ENTRY                   ADDRESS         REF BY
           =====                   =======         ======
           HostCtrlGetResetReason
                                   833C            HostCtrlTimerExpiry (hostctrl_omap4430)
               CSTACK = 00000000 ( 00000002 )
    -------------------------------------------------------------------------
<CODE,LCODE> 1 (was LCODE)
  Relative segment, address: CODE 8344 - 834B (0x8 bytes), align: 1
  Segment part 22.
           ENTRY                   ADDRESS         REF BY
           =====                   =======         ======
           HostCtrlGetResetFlags   8344            HostCtrlStateInit (hostctrl_omap4430)
                                                   HostCtrlTimerExpiry (hostctrl_omap4430)
               CSTACK = 00000000 ( 00000002 )
    -------------------------------------------------------------------------
<CODE,LCODE> 1 (was LCODE)
  Relative segment, address: CODE 834C - 8529 (0x1de bytes), align: 1
  Segment part 23.
           ENTRY                   ADDRESS         REF BY
           =====                   =======         ======
           HostCtrlInitiateReset   834C            LagavulinRegWrite (lagavulin_api)
                                                   ProcessUpdateCommand (lagavulin_updater)
                                                   nreswarmIsr (hostctrl_omap4430)
               calls direct
               CSTACK = 00000000 ( 00000008 )
    -------------------------------------------------------------------------
<CODE,LCODE> 1 (was LCODE)
  Relative segment, address: CODE 852A - 8539 (0x10 bytes), align: 1
  Segment part 24.
           ENTRY                   ADDRESS         REF BY
           =====                   =======         ======
           HostCtrlPowerLost       852A            PowerFaultIsr (lagavulin_misc)
               calls direct
               CSTACK = 00000000 ( 00000002 )
    -------------------------------------------------------------------------
DATA16_ID
  Relative segment, address: CODE 63AE - 63AF (0x2 bytes), align: 1
  Segment part 11.            Intra module refs:   SeqDir

    *************************************************************************

  FILE NAME : C:\workspace\perforce\lagavulin\armos\rocket\obj\coolriver_rev1\hostctrl_omap4430.o
  PROGRAM MODULE, NAME : hostctrl_omap4430

  SEGMENTS IN THE MODULE
  ======================
DATA16_Z
  Relative segment, address: DATA 0459 - 0459 (0x1 bytes), align: 0
  Segment part 2.             Intra module refs:   ExternalPwrApplied
                                                   HostCtrlInitProc
                                                   HostCtrlStateInit
                                                   HostCtrlTimerExpiry
                                                   HostCtrlUpdateState
           LOCAL                   ADDRESS         
           =====                   =======         
           State                   0459 
    -------------------------------------------------------------------------
<CODE,LCODE> 1 (was LCODE)
  Relative segment, address: CODE C6DC - C70F (0x34 bytes), align: 1
  Segment part 3.             Intra module refs:   HostCtrlInitProc
           LOCAL                   ADDRESS         
           =====                   =======         
           nreswarmIsr             C6DC 
               calls direct
               CSTACK = 00000000 ( 00000004 )
    -------------------------------------------------------------------------
<CODE,LCODE> 1 (was LCODE)
  Relative segment, address: CODE C8B0 - C8C9 (0x1a bytes), align: 1
  Segment part 4.
           ENTRY                   ADDRESS         REF BY
           =====                   =======         ======
           HostCtrlGpioResetProc   C8B0            HostCtrlGpioReset (hostctrl_common)
               calls direct
               CSTACK = 00000000 ( 00000002 )
    -------------------------------------------------------------------------
<CODE,LCODE> 1 (was LCODE)
  Relative segment, address: CODE CA10 - CA17 (0x8 bytes), align: 1
  Segment part 5.
           ENTRY                   ADDRESS         REF BY
           =====                   =======         ======
           HostCtrlUpdateState     CA10            SupplySequenceRunInternal (hostctrl_common)
               CSTACK = 00000000 ( 00000002 )
    -------------------------------------------------------------------------
<CODE,LCODE> 1 (was LCODE)
  Relative segment, address: CODE ACD0 - AE53 (0x184 bytes), align: 1
  Segment part 6.             Intra module refs:   HostCtrlStateInit
                                                   PmicLDOCFiqHandler
                                                   PmicLDOCIrqHandler
           LOCAL                   ADDRESS         
           =====                   =======         
           PmicFaultHandler        ACD0 
               calls direct
               CSTACK = 00000000 ( 00000006 )
    -------------------------------------------------------------------------
<CODE,LCODE> 1 (was LCODE)
  Relative segment, address: CODE AE54 - AE5B (0x8 bytes), align: 1
  Segment part 7.             Intra module refs:   PmicLDOCFiqHandler
                                                   PmicLDOCIrqHandler
           LOCAL                   ADDRESS         
           =====                   =======         
           PmicHPDHandler          AE54 
               calls direct
               CSTACK = 00000000 ( 00000002 )
    -------------------------------------------------------------------------
<CODE,LCODE> 1 (was LCODE)
  Relative segment, address: CODE AE5C - AE85 (0x2a bytes), align: 1
  Segment part 8.             Intra module refs:   HostCtrlStateInit
           LOCAL                   ADDRESS         
           =====                   =======         
           PmicLDOCFiqHandler      AE5C 
               calls direct
               CSTACK = 00000000 ( 00000002 )
    -------------------------------------------------------------------------
<CODE,LCODE> 1 (was LCODE)
  Relative segment, address: CODE AE86 - AEAF (0x2a bytes), align: 1
  Segment part 9.             Intra module refs:   HostCtrlStateInit
           LOCAL                   ADDRESS         
           =====                   =======         
           PmicLDOCIrqHandler      AE86 
               calls direct
               CSTACK = 00000000 ( 00000002 )
    -------------------------------------------------------------------------
<CODE,LCODE> 1 (was LCODE)
  Relative segment, address: CODE A846 - A8E1 (0x9c bytes), align: 1
  Segment part 10.            Intra module refs:   HostCtrlTimerExpiry
           LOCAL                   ADDRESS         
           =====                   =======         
           HostCtrlStateInit       A846 
               calls direct
               CSTACK = 00000000 ( 00000004 )
    -------------------------------------------------------------------------
<CODE,LCODE> 1 (was LCODE)
  Relative segment, address: CODE A8E2 - A8FB (0x1a bytes), align: 1
  Segment part 11.            Intra module refs:   HostCtrlTimerExpiry
           LOCAL                   ADDRESS         
           =====                   =======         
           ExternalPwrApplied      A8E2 
               calls direct
               CSTACK = 00000000 ( 00000002 )
    -------------------------------------------------------------------------
<CODE,LCODE> 1 (was LCODE)
  Relative segment, address: CODE A8FC - AA95 (0x19a bytes), align: 1
  Segment part 12.            Intra module refs:   ExternalPwrApplied
                                                   HostCtrlInitProc
                                                   HostCtrlTimerHandler
           ENTRY                   ADDRESS         REF BY
           =====                   =======         ======
           HostCtrlTimerExpiry     A8FC            SupplySequenceRunInternal (hostctrl_common)
               calls direct
               CSTACK = 00000000 ( 00000004 )
    -------------------------------------------------------------------------
<CODE,LCODE> 1 (was LCODE)
  Relative segment, address: CODE AA96 - AAA3 (0xe bytes), align: 1
  Segment part 13.            Intra module refs:   HostCtrlInitProc
           ENTRY                   ADDRESS         REF BY
           =====                   =======         ======
           HostCtrlTimerHandler    AA96 
               calls direct
               CSTACK = 00000000 ( 00000002 )
    -------------------------------------------------------------------------
<CODE,LCODE> 1 (was LCODE)
  Relative segment, address: CODE AAA4 - AAB5 (0x12 bytes), align: 1
  Segment part 14.
           ENTRY                   ADDRESS         REF BY
           =====                   =======         ======
           HostCtrlPrepResetProc   AAA4            HostCtrlInitiateReset (hostctrl_common)
               calls direct
               CSTACK = 00000000 ( 00000002 )
    -------------------------------------------------------------------------
<CODE,LCODE> 1 (was LCODE)
  Relative segment, address: CODE AAB6 - AAD9 (0x24 bytes), align: 1
  Segment part 15.
           ENTRY                   ADDRESS         REF BY
           =====                   =======         ======
           HostCtrlInitProc        AAB6            HostCtrlInit (hostctrl_common)
               calls direct
               CSTACK = 00000000 ( 00000002 )

    *************************************************************************

  FILE NAME : C:\workspace\perforce\lagavulin\armos\rocket\obj\coolriver_rev1\delay.o
  PROGRAM MODULE, NAME : delay

  SEGMENTS IN THE MODULE
  ======================
<CODE,LCODE> 1 (was LCODE)
  Relative segment, address: CODE C63C - C673 (0x38 bytes), align: 1
  Segment part 2.
           ENTRY                   ADDRESS         REF BY
           =====                   =======         ======
           HwDelay                 C63C            AdcConvertHw (lagavulin_adc_hw)
                                                   HostCtrlTimerExpiry (hostctrl_omap4430)
               calls direct
               CSTACK = 00000000 ( 0000000A )

    *************************************************************************

  FILE NAME : C:\workspace\perforce\lagavulin\armos\rocket\obj\coolriver_rev1\lagavulin_metrics.o
  PROGRAM MODULE, NAME : lagavulin_metrics

  SEGMENTS IN THE MODULE
  ======================
BOOT_LOADER_MSG
  Relative segment, address: CODE 0001FFFC - 0001FFFF (0x4 bytes), align: 1
  Segment part 2.
           ENTRY                   ADDRESS         REF BY
           =====                   =======         ======
           BootloaderMsg           0001FFFC        WriteBootloaderMsg (lagavulin_updater)
    -------------------------------------------------------------------------
BOOT_IMAGE_INFO
  Relative segment, address: CODE 00011FEA - 00011FFB (0x12 bytes), align: 1
  Segment part 3.             Intra module refs:   LagavulinMetrics
           ENTRY                   ADDRESS         REF BY
           =====                   =======         ======
           BootImageInfo           00011FEA 
    -------------------------------------------------------------------------
APP_IMAGE_INFO
  Relative segment, address: CODE 0001FFEA - 0001FFFB (0x12 bytes), align: 1
  Segment part 4.             Intra module refs:   LagavulinMetrics
           ENTRY                   ADDRESS         REF BY
           =====                   =======         ======
           AppImageInfo            0001FFEA 
    -------------------------------------------------------------------------
DATA16_C
  Relative segment, address: CODE 61E8 - 6229 (0x42 bytes), align: 1
  Segment part 5.
           ENTRY                   ADDRESS         REF BY
           =====                   =======         ======
           LagavulinMetrics        61E8            CodeUpdateStateInit (lagavulin_updater)
                                                   LagavulinRegRead (lagavulin_api)
                                                   ProcessUpdateCommand (lagavulin_updater)

    *************************************************************************

  FILE NAME : C:\workspace\perforce\lagavulin\armos\rocket\obj\coolriver_rev1\lagavulin_gpio.o
  PROGRAM MODULE, NAME : lagavulin_gpio

  SEGMENTS IN THE MODULE
  ======================
DATA16_SFR
  Relative segment, address: IDATA 0000 - 0000 (0x1 bytes), align: 0
  Segment part 1. ROOT.
           ENTRY                   ADDRESS         REF BY
           =====                   =======         ======
           PO0_REG8                0000 
    -------------------------------------------------------------------------
DATA16_SFR
  Relative segment, address: IDATA 0010 - 0010 (0x1 bytes), align: 0
  Segment part 2. ROOT.
           ENTRY                   ADDRESS         REF BY
           =====                   =======         ======
           PI0_REG8                0010 
    -------------------------------------------------------------------------
DATA16_SFR
  Relative segment, address: IDATA 0020 - 0020 (0x1 bytes), align: 0
  Segment part 3. ROOT.
           ENTRY                   ADDRESS         REF BY
           =====                   =======         ======
           PD0_REG8                0020 
    -------------------------------------------------------------------------
DATA16_SFR
  Relative segment, address: IDATA 0022 - 0022 (0x1 bytes), align: 0
  Segment part 4. ROOT.
           ENTRY                   ADDRESS         REF BY
           =====                   =======         ======
           PE0_REG8                0022 
    -------------------------------------------------------------------------
DATA16_SFR
  Relative segment, address: IDATA 0040 - 0040 (0x1 bytes), align: 0
  Segment part 5. ROOT.
           ENTRY                   ADDRESS         REF BY
           =====                   =======         ======
           PO1_REG8                0040 
    -------------------------------------------------------------------------
DATA16_SFR
  Relative segment, address: IDATA 0050 - 0050 (0x1 bytes), align: 0
  Segment part 6. ROOT.
           ENTRY                   ADDRESS         REF BY
           =====                   =======         ======
           PI1_REG8                0050 
    -------------------------------------------------------------------------
DATA16_SFR
  Relative segment, address: IDATA 0060 - 0060 (0x1 bytes), align: 0
  Segment part 7. ROOT.
           ENTRY                   ADDRESS         REF BY
           =====                   =======         ======
           PD1_REG8                0060 
    -------------------------------------------------------------------------
DATA16_SFR
  Relative segment, address: IDATA 0062 - 0062 (0x1 bytes), align: 0
  Segment part 8. ROOT.
           ENTRY                   ADDRESS         REF BY
           =====                   =======         ======
           PE1_REG8                0062 
    -------------------------------------------------------------------------
DATA16_SFR
  Relative segment, address: IDATA 000E - 000E (0x1 bytes), align: 0
  Segment part 9. ROOT.
           ENTRY                   ADDRESS         REF BY
           =====                   =======         ======
           EIF0_REG8               000E 
    -------------------------------------------------------------------------
DATA16_SFR
  Relative segment, address: IDATA 001E - 001E (0x1 bytes), align: 0
  Segment part 10. ROOT.
           ENTRY                   ADDRESS         REF BY
           =====                   =======         ======
           EIE0_REG8               001E 
    -------------------------------------------------------------------------
DATA16_SFR
  Relative segment, address: IDATA 0024 - 0024 (0x1 bytes), align: 0
  Segment part 11. ROOT.
           ENTRY                   ADDRESS         REF BY
           =====                   =======         ======
           EIES0_REG8              0024 
    -------------------------------------------------------------------------
DATA16_Z
  Relative segment, address: DATA 02D0 - 031F (0x50 bytes), align: 1
  Segment part 14.            Intra module refs:   GpioHandler
                                                   GpioInit
                                                   PadRegisterIntHandler
           LOCAL                   ADDRESS         
           =====                   =======         
           PadHandler              02D0 
    -------------------------------------------------------------------------
<CODE,LCODE> 1 (was LCODE)
  Relative segment, address: CODE B1DA - B34B (0x172 bytes), align: 1
  Segment part 15.            Intra module refs:   GpioInit
                                                   PadRegisterIntHandler
           LOCAL                   ADDRESS         
           =====                   =======         
           GpioHandler             B1DA 
               calls direct and indirect
               CSTACK = 00000000 ( 0000000A )
    -------------------------------------------------------------------------
<CODE,LCODE> 1 (was LCODE)
  Relative segment, address: CODE CA5C - CA5D (0x2 bytes), align: 1
  Segment part 16.            Intra module refs:   GpioInit
           LOCAL                   ADDRESS         
           =====                   =======         
           GpioInterruptFailure    CA5C 
               CSTACK = 00000000 ( 00000002 )
    -------------------------------------------------------------------------
<CODE,LCODE> 1 (was LCODE)
  Relative segment, address: CODE CA5E - CA5F (0x2 bytes), align: 1
  Segment part 17.
           ENTRY                   ADDRESS         REF BY
           =====                   =======         ======
           PadSupercapMode         CA5E            HostCtrlGpioReset (hostctrl_common)
               CSTACK = 00000000 ( 00000002 )
    -------------------------------------------------------------------------
<CODE,LCODE> 1 (was LCODE)
  Relative segment, address: CODE 9E46 - A28B (0x446 bytes), align: 1
  Segment part 18.            Intra module refs:   Segment part 23
           ENTRY                   ADDRESS         REF BY
           =====                   =======         ======
           PadConfig               9E46            HostCtrlGpioReset (hostctrl_common)
                                                   HostCtrlGpioResetProc (hostctrl_omap4430)
                                                   HostCtrlPowerLost (hostctrl_common)
                                                   HostCtrlPrepResetProc (hostctrl_omap4430)
                                                   HostCtrlTimerExpiry (hostctrl_omap4430)
                                                   PmicRead (lagavulin_spi)
                                                   PmicWrite (lagavulin_spi)
                                                   SupplySequenceRunInternal (hostctrl_common)
                                                   UpdateInterruptHost (lagavulin_api)
                                                   nreswarmIsr (hostctrl_omap4430)
               calls direct
               CSTACK = 00000000 ( 0000001A )
    -------------------------------------------------------------------------
<CODE,LCODE> 1 (was LCODE)
  Relative segment, address: CODE B9A6 - BA67 (0xc2 bytes), align: 1
  Segment part 19.
           ENTRY                   ADDRESS         REF BY
           =====                   =======         ======
           PadRead                 B9A6            nreswarmIsr (hostctrl_omap4430)
               calls direct
               CSTACK = 00000000 ( 00000006 )
    -------------------------------------------------------------------------
<CODE,LCODE> 1 (was LCODE)
  Relative segment, address: CODE BAFC - BB77 (0x7c bytes), align: 1
  Segment part 21.
           ENTRY                   ADDRESS         REF BY
           =====                   =======         ======
           PadRegisterIntHandler   BAFC            HostCtrlInitProc (hostctrl_omap4430)
               calls direct
               CSTACK = 00000000 ( 00000004 )
    -------------------------------------------------------------------------
<CODE,LCODE> 1 (was LCODE)
  Relative segment, address: CODE BB78 - BBEB (0x74 bytes), align: 1
  Segment part 22.
           ENTRY                   ADDRESS         REF BY
           =====                   =======         ======
           GpioInit                BB78            main (init)
               calls direct
               CSTACK = 00000000 ( 00000002 )
    -------------------------------------------------------------------------
DATA16_C
  Relative segment, address: CODE 622A - 623D (0x14 bytes), align: 1
  Segment part 23.            Intra module refs:   PadConfig

    *************************************************************************

  FILE NAME : C:\workspace\perforce\lagavulin\armos\rocket\obj\coolriver_rev1\lagavulin_misc.o
  PROGRAM MODULE, NAME : lagavulin_misc

  SEGMENTS IN THE MODULE
  ======================
DATA16_SFR
  Relative segment, address: IDATA 0090 - 0091 (0x2 bytes), align: 0
  Segment part 1. ROOT.
           ENTRY                   ADDRESS         REF BY
           =====                   =======         ======
           PWCN_REG16              0090 
    -------------------------------------------------------------------------
DATA16_SFR
  Relative segment, address: IDATA 0148 - 0149 (0x2 bytes), align: 0
  Segment part 2. ROOT.
           ENTRY                   ADDRESS         REF BY
           =====                   =======         ======
           SHDNCN_REG16            0148 
    -------------------------------------------------------------------------
DATA16_SFR
  Relative segment, address: IDATA 021E - 021E (0x1 bytes), align: 0
  Segment part 4. ROOT.
           ENTRY                   ADDRESS         REF BY
           =====                   =======         ======
           WDCN_REG8               021E 
    -------------------------------------------------------------------------
DATA16_N
  Relative segment, address: DATA 0482 - 0483 (0x2 bytes), align: 1
  Segment part 6.             Intra module refs:   RimInitiateReset
                                                   WdtInit
           ENTRY                   ADDRESS         REF BY
           =====                   =======         ======
           ResetCookie             0482 
    -------------------------------------------------------------------------
DATA16_I
  Relative segment, address: DATA 00E6 - 00E6 (0x1 bytes), align: 0
  Segment part 7.             Intra module refs:   UpdateResetStat
                                                   WdtInit
           ENTRY                   ADDRESS         REF BY
           =====                   =======         ======
           ResetStat               00E6            LagavulinRegRead (lagavulin_api)
    -------------------------------------------------------------------------
DATA16_I
  Relative segment, address: DATA 00E7 - 00E7 (0x1 bytes), align: 0
  Segment part 9.             Intra module refs:   WdtInit
           ENTRY                   ADDRESS         REF BY
           =====                   =======         ======
           ResetExtra              00E7            LagavulinRegRead (lagavulin_api)
    -------------------------------------------------------------------------
<CODE,LCODE> 1 (was LCODE)
  Relative segment, address: CODE C57E - C5C3 (0x46 bytes), align: 1
  Segment part 11.            Intra module refs:   ConfigureRstNmi
           ENTRY                   ADDRESS         REF BY
           =====                   =======         ======
           PowerFaultIsr           C57E 
               calls direct
               CSTACK = 00000000 ( 00000004 )
    -------------------------------------------------------------------------
<CODE,LCODE> 1 (was LCODE)
  Relative segment, address: CODE AADA - AB67 (0x8e bytes), align: 1
  Segment part 13.            Intra module refs:   WdtInit
           ENTRY                   ADDRESS         REF BY
           =====                   =======         ======
           UpdateResetStat         AADA            HostCtrlInitiateReset (hostctrl_common)
               CSTACK = 00000000 ( 00000002 )
    -------------------------------------------------------------------------
<CODE,LCODE> 1 (was LCODE)
  Relative segment, address: CODE AB68 - ACCF (0x168 bytes), align: 1
  Segment part 14.
           ENTRY                   ADDRESS         REF BY
           =====                   =======         ======
           WdtInit                 AB68            main (init)
               calls direct
               CSTACK = 00000000 ( 00000004 )
    -------------------------------------------------------------------------
<CODE,LCODE> 1 (was LCODE)
  Relative segment, address: CODE CA60 - CA61 (0x2 bytes), align: 1
  Segment part 15.
           ENTRY                   ADDRESS         REF BY
           =====                   =======         ======
           WdtStartTimer           CA60            main (init)
               CSTACK = 00000000 ( 00000002 )
    -------------------------------------------------------------------------
<CODE,LCODE> 1 (was LCODE)
  Relative segment, address: CODE CA62 - CA63 (0x2 bytes), align: 1
  Segment part 16.
           ENTRY                   ADDRESS         REF BY
           =====                   =======         ======
           WdtHit                  CA62            LagavulinRegWrite (lagavulin_api)
                                                   main (init)
               CSTACK = 00000000 ( 00000002 )
    -------------------------------------------------------------------------
<CODE,LCODE> 1 (was LCODE)
  Relative segment, address: CODE C604 - C63B (0x38 bytes), align: 1
  Segment part 17.
           ENTRY                   ADDRESS         REF BY
           =====                   =======         ======
           RimInitiateReset        C604            HostCtrlTimerExpiry (hostctrl_omap4430)
                                                   LagavulinRegWrite (lagavulin_api)
                                                   PmicFaultHandler (hostctrl_omap4430)
                                                   QueueCallInt (msgque)
               calls direct
               CSTACK = 00000000 ( 00000004 )
    -------------------------------------------------------------------------
<CODE,LCODE> 1 (was LCODE)
  Relative segment, address: CODE C862 - C87B (0x1a bytes), align: 1
  Segment part 18.
           ENTRY                   ADDRESS         REF BY
           =====                   =======         ======
           ConfigureRstNmi         C862            main (init)
               calls direct
               CSTACK = 00000000 ( 00000002 )
    -------------------------------------------------------------------------
DATA16_ID
  Relative segment, address: CODE 63F2 - 63F2 (0x1 bytes), align: 0
  Segment part 8.             Intra module refs:   ResetStat
    -------------------------------------------------------------------------
DATA16_ID
  Relative segment, address: CODE 63F3 - 63F3 (0x1 bytes), align: 0
  Segment part 10.            Intra module refs:   ResetExtra

    *************************************************************************

  FILE NAME : C:\workspace\perforce\lagavulin\armos\rocket\obj\coolriver_rev1\lagavulin_timer.o
  PROGRAM MODULE, NAME : lagavulin_timer

  SEGMENTS IN THE MODULE
  ======================
DATA16_SFR
  Relative segment, address: IDATA 0140 - 0140 (0x1 bytes), align: 0
  Segment part 1. ROOT.
           ENTRY                   ADDRESS         REF BY
           =====                   =======         ======
           T32KCN_REG8             0140 
    -------------------------------------------------------------------------
DATA16_SFR
  Relative segment, address: IDATA 0144 - 0145 (0x2 bytes), align: 0
  Segment part 2. ROOT.
           ENTRY                   ADDRESS         REF BY
           =====                   =======         ======
           T32KV_REG16             0144 
    -------------------------------------------------------------------------
DATA16_SFR
  Relative segment, address: IDATA 0146 - 0147 (0x2 bytes), align: 0
  Segment part 3. ROOT.
           ENTRY                   ADDRESS         REF BY
           =====                   =======         ======
           T32KC_REG16             0146 
    -------------------------------------------------------------------------
DATA16_Z
  Relative segment, address: DATA 0320 - 0321 (0x2 bytes), align: 1
  Segment part 7.             Intra module refs:   RegisterHWTimerExpiry
                                                   TimerMuxHandler
           LOCAL                   ADDRESS         
           =====                   =======         
           muxTimerHandler         0320 
    -------------------------------------------------------------------------
DATA16_Z
  Relative segment, address: DATA 0322 - 0323 (0x2 bytes), align: 1
  Segment part 8.             Intra module refs:   GetHWTimerCountDword
                                                   TimerMuxHandler
           LOCAL                   ADDRESS         
           =====                   =======         
           HighWord                0322 
    -------------------------------------------------------------------------
DATA16_Z
  Relative segment, address: DATA 0324 - 0325 (0x2 bytes), align: 1
  Segment part 9.             Intra module refs:   GetHWTimerCountDword
                                                   TimerMuxHandler
           LOCAL                   ADDRESS         
           =====                   =======         
           Last32kValue            0324 
    -------------------------------------------------------------------------
<CODE,LCODE> 1 (was LCODE)
  Relative segment, address: CODE C4D8 - C533 (0x5c bytes), align: 1
  Segment part 10.            Intra module refs:   TimerHWInit
           ENTRY                   ADDRESS         REF BY
           =====                   =======         ======
           TimerMuxHandler         C4D8 
               calls indirect
               CSTACK = 00000000 ( 00000002 )
    -------------------------------------------------------------------------
<CODE,LCODE> 1 (was LCODE)
  Relative segment, address: CODE B74C - B757 (0xc bytes), align: 1
  Segment part 11.            Intra module refs:   GetHWTimerCountDword
                                                   SetHWTimer
           ENTRY                   ADDRESS         REF BY
           =====                   =======         ======
           GetHWTimerCountWord     B74C 
               CSTACK = 00000000 ( 00000002 )
    -------------------------------------------------------------------------
<CODE,LCODE> 1 (was LCODE)
  Relative segment, address: CODE B758 - B7C5 (0x6e bytes), align: 1
  Segment part 12.
           ENTRY                   ADDRESS         REF BY
           =====                   =======         ======
           GetHWTimerCountDword    B758            HwDelay (delay)
                                                   SetTimer (timer_mux)
                                                   StopTimer (timer_mux)
                                                   expireMuxTimers (timer_mux)
               calls direct
               CSTACK = 00000000 ( 00000006 )
    -------------------------------------------------------------------------
<CODE,LCODE> 1 (was LCODE)
  Relative segment, address: CODE B7C6 - B81B (0x56 bytes), align: 1
  Segment part 13.
           ENTRY                   ADDRESS         REF BY
           =====                   =======         ======
           SetHWTimer              B7C6            setEarliest (timer_mux)
               calls direct
               CSTACK = 00000000 ( 00000006 )
    -------------------------------------------------------------------------
<CODE,LCODE> 1 (was LCODE)
  Relative segment, address: CODE C7C4 - C7E9 (0x26 bytes), align: 1
  Segment part 14.
           ENTRY                   ADDRESS         REF BY
           =====                   =======         ======
           StopHWTimer             C7C4            StopTimer (timer_mux)
                                                   expireMuxTimers (timer_mux)
               CSTACK = 00000000 ( 00000002 )
    -------------------------------------------------------------------------
<CODE,LCODE> 1 (was LCODE)
  Relative segment, address: CODE C7EA - C80B (0x22 bytes), align: 1
  Segment part 15.
           ENTRY                   ADDRESS         REF BY
           =====                   =======         ======
           TimerHWInit             C7EA            TimerInit (timer_mux)
               calls direct
               CSTACK = 00000000 ( 00000002 )
    -------------------------------------------------------------------------
<CODE,LCODE> 1 (was LCODE)
  Relative segment, address: CODE C82A - C847 (0x1e bytes), align: 1
  Segment part 16.
           ENTRY                   ADDRESS         REF BY
           =====                   =======         ======
           TimerHWHalt             C82A            PreEnterDeepSleep (lagavulin_slowclock)
               CSTACK = 00000000 ( 00000002 )
    -------------------------------------------------------------------------
<CODE,LCODE> 1 (was LCODE)
  Relative segment, address: CODE C920 - C931 (0x12 bytes), align: 1
  Segment part 17.
           ENTRY                   ADDRESS         REF BY
           =====                   =======         ======
           RegisterHWTimerExpiry   C920            TimerInit (timer_mux)
               CSTACK = 00000000 ( 00000002 )

    *************************************************************************

  FILE NAME : C:\workspace\perforce\lagavulin\armos\rocket\obj\coolriver_rev1\lagavulin_api.o
  PROGRAM MODULE, NAME : lagavulin_api

  SEGMENTS IN THE MODULE
  ======================
DATA16_Z
  Relative segment, address: DATA 045A - 045C (0x3 bytes), align: 0
  Segment part 3.             Intra module refs:   ApiClearInterruptHost
                                                   ApiInit
                                                   ApiInterruptHost
                                                   LagavulinRegRead
                                                   LagavulinRegStopReceived
                                                   LagavulinRegWrite
                                                   UpdateInterruptHost
           ENTRY                   ADDRESS         REF BY
           =====                   =======         ======
           rReg                    045A 
    -------------------------------------------------------------------------
DATA16_Z
  Relative segment, address: DATA 0326 - 0327 (0x2 bytes), align: 1
  Segment part 4.             Intra module refs:   ApiRegRead
                                                   ApiRegWrite
                                                   ApiStopReceived
           LOCAL                   ADDRESS         
           =====                   =======         
           newTransaction          0326 
    -------------------------------------------------------------------------
DATA16_Z
  Relative segment, address: DATA 0328 - 0397 (0x70 bytes), align: 1
  Segment part 5.             Intra module refs:   ApiInit
                                                   ApiRegRead
                                                   ApiRegWrite
                                                   ApiRegisterHandlers
                                                   ApiStopReceived
           LOCAL                   ADDRESS         
           =====                   =======         
           ApiHandler              0328 
    -------------------------------------------------------------------------
DATA16_Z
  Relative segment, address: DATA 045D - 045D (0x1 bytes), align: 0
  Segment part 6.             Intra module refs:   ApiInit
                                                   LagavulinRegRead
                                                   LagavulinRegWrite
           ENTRY                   ADDRESS         REF BY
           =====                   =======         ======
           SysFlags0               045D 
    -------------------------------------------------------------------------
<CODE,LCODE> 1 (was LCODE)
  Relative segment, address: CODE B05C - B131 (0xd6 bytes), align: 1
  Segment part 9.
           ENTRY                   ADDRESS         REF BY
           =====                   =======         ======
           ApiInit                 B05C            main (init)
               calls direct
               CSTACK = 00000000 ( 00000002 )
    -------------------------------------------------------------------------
<CODE,LCODE> 1 (was LCODE)
  Relative segment, address: CODE B132 - B1D9 (0xa8 bytes), align: 1
  Segment part 11.            Intra module refs:   ApiInit
           ENTRY                   ADDRESS         REF BY
           =====                   =======         ======
           ApiRegisterHandlers     B132            AdcInitHw (lagavulin_adc_hw)
                                                   CodeUpdateStateInit (lagavulin_updater)
               CSTACK = 00000000 ( 00000004 )
    -------------------------------------------------------------------------
<CODE,LCODE> 1 (was LCODE)
  Relative segment, address: CODE 98DC - 9911 (0x36 bytes), align: 1
  Segment part 12.            Intra module refs:   ApiClearInterruptHost
                                                   ApiInterruptHost
                                                   LagavulinRegWrite
           LOCAL                   ADDRESS         
           =====                   =======         
           UpdateInterruptHost     98DC 
               calls direct
               CSTACK = 00000000 ( 00000002 )
    -------------------------------------------------------------------------
<CODE,LCODE> 1 (was LCODE)
  Relative segment, address: CODE 9912 - 9955 (0x44 bytes), align: 1
  Segment part 13.
           ENTRY                   ADDRESS         REF BY
           =====                   =======         ======
           ApiInterruptHost        9912            PmicInterruptHandlerReal (lagavulin_pmic_intctrl)
               calls direct
               CSTACK = 00000000 ( 00000006 )
    -------------------------------------------------------------------------
<CODE,LCODE> 1 (was LCODE)
  Relative segment, address: CODE 9956 - 998B (0x36 bytes), align: 1
  Segment part 14.
           ENTRY                   ADDRESS         REF BY
           =====                   =======         ======
           ApiClearInterruptHost   9956            PmicIntctrlRegRead (lagavulin_pmic_intctrl)
               calls direct
               CSTACK = 00000000 ( 00000004 )
    -------------------------------------------------------------------------
<CODE,LCODE> 1 (was LCODE)
  Relative segment, address: CODE 998C - 9A03 (0x78 bytes), align: 1
  Segment part 15.
           ENTRY                   ADDRESS         REF BY
           =====                   =======         ======
           ApiStopReceived         998C            i2cSlaveIsr (lagavulin_i2c)
               calls indirect
               CSTACK = 00000000 ( 00000002 )
    -------------------------------------------------------------------------
<CODE,LCODE> 1 (was LCODE)
  Relative segment, address: CODE 9A04 - 9A71 (0x6e bytes), align: 1
  Segment part 18.
           ENTRY                   ADDRESS         REF BY
           =====                   =======         ======
           ApiRegRead              9A04            i2cSlaveIsr (lagavulin_i2c)
                                                   i2cSlaveRomIsr (lagavulin_i2c)
               calls indirect
               CSTACK = 00000000 ( 00000002 )
    -------------------------------------------------------------------------
<CODE,LCODE> 1 (was LCODE)
  Relative segment, address: CODE 9A72 - 9AF9 (0x88 bytes), align: 1
  Segment part 19.
           ENTRY                   ADDRESS         REF BY
           =====                   =======         ======
           ApiRegWrite             9A72            i2cSlaveIsr (lagavulin_i2c)
               calls indirect
               CSTACK = 00000000 ( 00000002 )
    -------------------------------------------------------------------------
<CODE,LCODE> 1 (was LCODE)
  Relative segment, address: CODE 9AFA - 9D13 (0x21a bytes), align: 1
  Segment part 20.            Intra module refs:   ApiInit
                                                   Segment part 26
           ENTRY                   ADDRESS         REF BY
           =====                   =======         ======
           LagavulinRegRead        9AFA 
               calls direct
               CSTACK = 00000000 ( 00000004 )
    -------------------------------------------------------------------------
DATA16_Z
  Relative segment, address: DATA 045E - 0465 (0x8 bytes), align: 0
  Segment part 7.             Intra module refs:   LagavulinRegRead
           LOCAL                   ADDRESS         
           =====                   =======         
           LagavulinRegRead::LatchedUtcRead
                                   045E 
    -------------------------------------------------------------------------
<CODE,LCODE> 1 (was LCODE)
  Relative segment, address: CODE 9D14 - 9E45 (0x132 bytes), align: 1
  Segment part 21.            Intra module refs:   ApiInit
           ENTRY                   ADDRESS         REF BY
           =====                   =======         ======
           LagavulinRegWrite       9D14 
               calls direct
               CSTACK = 00000000 ( 00000002 )
    -------------------------------------------------------------------------
DATA16_Z
  Relative segment, address: DATA 0466 - 046D (0x8 bytes), align: 0
  Segment part 8.             Intra module refs:   LagavulinRegWrite
           LOCAL                   ADDRESS         
           =====                   =======         
           LagavulinRegWrite::LatchedUtcWrite
                                   0466 
    -------------------------------------------------------------------------
<CODE,LCODE> 1 (was LCODE)
  Relative segment, address: CODE BD96 - BDF9 (0x64 bytes), align: 1
  Segment part 22.            Intra module refs:   ApiInit
           ENTRY                   ADDRESS         REF BY
           =====                   =======         ======
           LagavulinRegStopReceived
                                   BD96 
               calls direct
               CSTACK = 00000000 ( 00000002 )
    -------------------------------------------------------------------------
<CODE,LCODE> 1 (was LCODE)
  Relative segment, address: CODE C6A8 - C6DB (0x34 bytes), align: 1
  Segment part 23.            Intra module refs:   ApiInit
           ENTRY                   ADDRESS         REF BY
           =====                   =======         ======
           LagavulinPmicRead       C6A8 
               calls direct
               CSTACK = 00000000 ( 00000002 )
    -------------------------------------------------------------------------
<CODE,LCODE> 1 (was LCODE)
  Relative segment, address: CODE C742 - C76D (0x2c bytes), align: 1
  Segment part 24.            Intra module refs:   ApiInit
           ENTRY                   ADDRESS         REF BY
           =====                   =======         ======
           LagavulinPmicWrite      C742 
               calls direct
               CSTACK = 00000000 ( 00000002 )
    -------------------------------------------------------------------------
<CODE,LCODE> 1 (was LCODE)
  Relative segment, address: CODE BD32 - BD95 (0x64 bytes), align: 1
  Segment part 25.            Intra module refs:   ApiInit
           ENTRY                   ADDRESS         REF BY
           =====                   =======         ======
           LagavulinPmicStopReceived
                                   BD32 
               calls direct
               CSTACK = 00000000 ( 00000002 )
    -------------------------------------------------------------------------
DATA16_C
  Relative segment, address: CODE 623E - 6295 (0x58 bytes), align: 1
  Segment part 26.            Intra module refs:   LagavulinRegRead

    *************************************************************************

  FILE NAME : C:\workspace\perforce\lagavulin\armos\rocket\obj\coolriver_rev1\lagavulin_i2c.o
  PROGRAM MODULE, NAME : lagavulin_i2c

  SEGMENTS IN THE MODULE
  ======================
DATA16_SFR
  Relative segment, address: IDATA 0008 - 0009 (0x2 bytes), align: 0
  Segment part 1. ROOT.
           ENTRY                   ADDRESS         REF BY
           =====                   =======         ======
           I2CCN0_REG16            0008 
    -------------------------------------------------------------------------
DATA16_SFR
  Relative segment, address: IDATA 000A - 000B (0x2 bytes), align: 0
  Segment part 2. ROOT.
           ENTRY                   ADDRESS         REF BY
           =====                   =======         ======
           I2CST0_REG16            000A 
    -------------------------------------------------------------------------
DATA16_SFR
  Relative segment, address: IDATA 000C - 000D (0x2 bytes), align: 0
  Segment part 3. ROOT.
           ENTRY                   ADDRESS         REF BY
           =====                   =======         ======
           I2CBUF0_REG16           000C 
    -------------------------------------------------------------------------
DATA16_SFR
  Relative segment, address: IDATA 0016 - 0017 (0x2 bytes), align: 0
  Segment part 4. ROOT.
           ENTRY                   ADDRESS         REF BY
           =====                   =======         ======
           I2CIE0_REG16            0016 
    -------------------------------------------------------------------------
DATA16_SFR
  Relative segment, address: IDATA 0018 - 0019 (0x2 bytes), align: 0
  Segment part 5. ROOT.
           ENTRY                   ADDRESS         REF BY
           =====                   =======         ======
           I2CSLA0_REG16           0018 
    -------------------------------------------------------------------------
DATA16_SFR
  Relative segment, address: IDATA 0048 - 0049 (0x2 bytes), align: 0
  Segment part 6. ROOT.
           ENTRY                   ADDRESS         REF BY
           =====                   =======         ======
           I2CCN1_REG16            0048 
    -------------------------------------------------------------------------
DATA16_SFR
  Relative segment, address: IDATA 004A - 004B (0x2 bytes), align: 0
  Segment part 7. ROOT.
           ENTRY                   ADDRESS         REF BY
           =====                   =======         ======
           I2CST1_REG16            004A 
    -------------------------------------------------------------------------
DATA16_SFR
  Relative segment, address: IDATA 004C - 004D (0x2 bytes), align: 0
  Segment part 8. ROOT.
           ENTRY                   ADDRESS         REF BY
           =====                   =======         ======
           I2CBUF1_REG16           004C 
    -------------------------------------------------------------------------
DATA16_SFR
  Relative segment, address: IDATA 0056 - 0057 (0x2 bytes), align: 0
  Segment part 9. ROOT.
           ENTRY                   ADDRESS         REF BY
           =====                   =======         ======
           I2CIE1_REG16            0056 
    -------------------------------------------------------------------------
DATA16_SFR
  Relative segment, address: IDATA 0058 - 0059 (0x2 bytes), align: 0
  Segment part 10. ROOT.
           ENTRY                   ADDRESS         REF BY
           =====                   =======         ======
           I2CSLA1_REG16           0058 
    -------------------------------------------------------------------------
DATA16_SFR
  Relative segment, address: IDATA 0088 - 0089 (0x2 bytes), align: 0
  Segment part 11. ROOT.
           ENTRY                   ADDRESS         REF BY
           =====                   =======         ======
           I2CCN2_REG16            0088 
    -------------------------------------------------------------------------
DATA16_SFR
  Relative segment, address: IDATA 008A - 008B (0x2 bytes), align: 0
  Segment part 12. ROOT.
           ENTRY                   ADDRESS         REF BY
           =====                   =======         ======
           I2CST2_REG16            008A 
    -------------------------------------------------------------------------
DATA16_SFR
  Relative segment, address: IDATA 008C - 008D (0x2 bytes), align: 0
  Segment part 13. ROOT.
           ENTRY                   ADDRESS         REF BY
           =====                   =======         ======
           I2CBUF2_REG16           008C 
    -------------------------------------------------------------------------
DATA16_SFR
  Relative segment, address: IDATA 0096 - 0097 (0x2 bytes), align: 0
  Segment part 14. ROOT.
           ENTRY                   ADDRESS         REF BY
           =====                   =======         ======
           I2CIE2_REG16            0096 
    -------------------------------------------------------------------------
DATA16_SFR
  Relative segment, address: IDATA 009A - 009B (0x2 bytes), align: 0
  Segment part 15. ROOT.
           ENTRY                   ADDRESS         REF BY
           =====                   =======         ======
           I2CCK2_REG16            009A 
    -------------------------------------------------------------------------
DATA16_Z
  Relative segment, address: DATA 0398 - 039D (0x6 bytes), align: 1
  Segment part 18.            Intra module refs:   hwInitI2c
                                                   i2cSlaveDummyIsr
                                                   i2cSlaveIsr
           LOCAL                   ADDRESS         
           =====                   =======         
           nextState               0398 
    -------------------------------------------------------------------------
DATA16_Z
  Relative segment, address: DATA 039E - 03A3 (0x6 bytes), align: 1
  Segment part 19.            Intra module refs:   i2cSlaveIsr
           LOCAL                   ADDRESS         
           =====                   =======         
           accessCount             039E 
    -------------------------------------------------------------------------
DATA16_Z
  Relative segment, address: DATA 03A4 - 03D3 (0x30 bytes), align: 1
  Segment part 20.            Intra module refs:   hwInitI2c
                                                   i2cIsrHandler
                                                   i2cMasterIsr
           LOCAL                   ADDRESS         
           =====                   =======         
           module                  03A4 
    -------------------------------------------------------------------------
DATA16_Z
  Relative segment, address: DATA 046E - 0470 (0x3 bytes), align: 0
  Segment part 21.            Intra module refs:   hwInitI2c
                                                   i2cSlaveIsr
           LOCAL                   ADDRESS         
           =====                   =======         
           devId                   046E 
    -------------------------------------------------------------------------
DATA16_Z
  Relative segment, address: DATA 0471 - 0473 (0x3 bytes), align: 0
  Segment part 22.            Intra module refs:   hwInitI2c
                                                   i2cSlaveDummyIsr
                                                   i2cSlaveIsr
           LOCAL                   ADDRESS         
           =====                   =======         
           regAddr                 0471 
    -------------------------------------------------------------------------
DATA16_C
  Relative segment, address: CODE 6332 - 636D (0x3c bytes), align: 0
  Segment part 23.            Intra module refs:   I2cRomInit
                                                   i2cSlaveRomIsr
           ENTRY                   ADDRESS         REF BY
           =====                   =======         ======
           adrSeqRom               6332 
    -------------------------------------------------------------------------
DATA16_Z
  Relative segment, address: DATA 0474 - 0474 (0x1 bytes), align: 0
  Segment part 24.            Intra module refs:   I2cRomInit
                                                   i2cSlaveRomIsr
           LOCAL                   ADDRESS         
           =====                   =======         
           adrSeqMode              0474 
    -------------------------------------------------------------------------
DATA16_Z
  Relative segment, address: DATA 0475 - 0475 (0x1 bytes), align: 0
  Segment part 25.            Intra module refs:   I2cRomInit
                                                   i2cSlaveRomIsr
           LOCAL                   ADDRESS         
           =====                   =======         
           adrSeqCnt               0475 
    -------------------------------------------------------------------------
<CODE,LCODE> 1 (was LCODE)
  Relative segment, address: CODE 65C6 - 667B (0xb6 bytes), align: 1
  Segment part 26.            Intra module refs:   I2cInit
                                                   I2cInitInternalBus
                                                   I2cRomInit
                                                   i2cSlaveRomIsr
           LOCAL                   ADDRESS         
           =====                   =======         
           hwInitI2c               65C6 
               CSTACK = 00000000 ( 00000002 )
    -------------------------------------------------------------------------
<CODE,LCODE> 1 (was LCODE)
  Relative segment, address: CODE 667C - 686D (0x1f2 bytes), align: 1
  Segment part 27.            Intra module refs:   i2cIsrHandler
           LOCAL                   ADDRESS         
           =====                   =======         
           i2cSlaveDummyIsr        667C 
               CSTACK = 00000000 ( 00000002 )
    -------------------------------------------------------------------------
<CODE,LCODE> 1 (was LCODE)
  Relative segment, address: CODE 686E - 69A9 (0x13c bytes), align: 1
  Segment part 28.            Intra module refs:   i2cIsrHandler
           LOCAL                   ADDRESS         
           =====                   =======         
           i2cSlaveRomIsr          686E 
               calls direct
               CSTACK = 00000000 ( 00000004 )
    -------------------------------------------------------------------------
<CODE,LCODE> 1 (was LCODE)
  Relative segment, address: CODE 69AA - 6E9B (0x4f2 bytes), align: 1
  Segment part 29.            Intra module refs:   i2cIsrHandler
           LOCAL                   ADDRESS         
           =====                   =======         
           i2cSlaveIsr             69AA 
               calls direct
               CSTACK = 00000000 ( 00000004 )
    -------------------------------------------------------------------------
<CODE,LCODE> 1 (was LCODE)
  Relative segment, address: CODE 6E9C - 759F (0x704 bytes), align: 1
  Segment part 30.            Intra module refs:   i2cIsrHandler
           LOCAL                   ADDRESS         
           =====                   =======         
           i2cMasterIsr            6E9C 
               calls direct and indirect
               CSTACK = 00000000 ( 00000006 )
    -------------------------------------------------------------------------
<CODE,LCODE> 1 (was LCODE)
  Relative segment, address: CODE 75A0 - 75C9 (0x2a bytes), align: 1
  Segment part 35.
           ENTRY                   ADDRESS         REF BY
           =====                   =======         ======
           I2cInitInternalBus      75A0            main (init)
               calls direct
               CSTACK = 00000000 ( 00000002 )
    -------------------------------------------------------------------------
<CODE,LCODE> 1 (was LCODE)
  Relative segment, address: CODE 75CA - 7635 (0x6c bytes), align: 1
  Segment part 36.
           ENTRY                   ADDRESS         REF BY
           =====                   =======         ======
           I2cRomInit              75CA            HostCtrlTimerExpiry (hostctrl_omap4430)
               calls direct
               CSTACK = 00000000 ( 00000004 )
    -------------------------------------------------------------------------
<CODE,LCODE> 1 (was LCODE)
  Relative segment, address: CODE 7636 - 7665 (0x30 bytes), align: 1
  Segment part 37.            Intra module refs:   i2cSlaveRomIsr
           ENTRY                   ADDRESS         REF BY
           =====                   =======         ======
           I2cInit                 7636 
               calls direct
               CSTACK = 00000000 ( 00000004 )
    -------------------------------------------------------------------------
<CODE,LCODE> 1 (was LCODE)
  Relative segment, address: CODE 7666 - 768B (0x26 bytes), align: 1
  Segment part 38.
           ENTRY                   ADDRESS         REF BY
           =====                   =======         ======
           I2cUninit               7666            HostCtrlInitiateReset (hostctrl_common)
               CSTACK = 00000000 ( 00000002 )
    -------------------------------------------------------------------------
<CODE,LCODE> 1 (was LCODE)
  Relative segment, address: CODE 768C - 76EB (0x60 bytes), align: 1
  Segment part 39.            Intra module refs:   i2c0RxTxIsr
                                                   i2c1RxTxIsr
                                                   i2c2RxTxIsr
           LOCAL                   ADDRESS         
           =====                   =======         
           i2cIsrHandler           768C 
               calls direct
               CSTACK = 00000000 ( 00000002 )
    -------------------------------------------------------------------------
<CODE,LCODE> 1 (was LCODE)
  Relative segment, address: CODE 76EC - 76F9 (0xe bytes), align: 1
  Segment part 40.            Intra module refs:   I2cInitInternalBus
           LOCAL                   ADDRESS         
           =====                   =======         
           i2c0RxTxIsr             76EC 
               calls direct
               CSTACK = 00000000 ( 00000002 )
    -------------------------------------------------------------------------
<CODE,LCODE> 1 (was LCODE)
  Relative segment, address: CODE 76FA - 7707 (0xe bytes), align: 1
  Segment part 41.            Intra module refs:   I2cInitInternalBus
           LOCAL                   ADDRESS         
           =====                   =======         
           i2c1RxTxIsr             76FA 
               calls direct
               CSTACK = 00000000 ( 00000002 )
    -------------------------------------------------------------------------
<CODE,LCODE> 1 (was LCODE)
  Relative segment, address: CODE 7708 - 7715 (0xe bytes), align: 1
  Segment part 42.            Intra module refs:   I2cInitInternalBus
           LOCAL                   ADDRESS         
           =====                   =======         
           i2c2RxTxIsr             7708 
               calls direct
               CSTACK = 00000000 ( 00000002 )

    *************************************************************************

  FILE NAME : C:\workspace\perforce\lagavulin\armos\rocket\obj\coolriver_rev1\lagavulin_slowclock.o
  PROGRAM MODULE, NAME : lagavulin_slowclock

  SEGMENTS IN THE MODULE
  ======================
DATA16_SFR
  Relative segment, address: IDATA 004E - 004F (0x2 bytes), align: 0
  Segment part 1. ROOT.
           ENTRY                   ADDRESS         REF BY
           =====                   =======         ======
           TBCN0_REG16             004E 
    -------------------------------------------------------------------------
DATA16_SFR
  Relative segment, address: IDATA 0064 - 0065 (0x2 bytes), align: 0
  Segment part 2. ROOT.
           ENTRY                   ADDRESS         REF BY
           =====                   =======         ======
           TBR0_REG16              0064 
    -------------------------------------------------------------------------
DATA16_SFR
  Relative segment, address: IDATA 0066 - 0067 (0x2 bytes), align: 0
  Segment part 3. ROOT.
           ENTRY                   ADDRESS         REF BY
           =====                   =======         ======
           TBC0_REG16              0066 
    -------------------------------------------------------------------------
DATA16_SFR
  Relative segment, address: IDATA 021C - 021C (0x1 bytes), align: 0
  Segment part 6. ROOT.
           ENTRY                   ADDRESS         REF BY
           =====                   =======         ======
           CKCN_REG8               021C 
    -------------------------------------------------------------------------
<CODE,LCODE> 1 (was LCODE)
  Relative segment, address: CODE B34C - B385 (0x3a bytes), align: 1
  Segment part 8.             Intra module refs:   ConfigureFll
                                                   PreEnterDeepSleep
           ENTRY                   ADDRESS         REF BY
           =====                   =======         ======
           VCoreLevel              B34C 
               CSTACK = 00000000 ( 00000002 )
    -------------------------------------------------------------------------
<CODE,LCODE> 1 (was LCODE)
  Relative segment, address: CODE B386 - B40D (0x88 bytes), align: 1
  Segment part 9.             Intra module refs:   ConfigureFll
                                                   PreEnterDeepSleep
           ENTRY                   ADDRESS         REF BY
           =====                   =======         ======
           SetVCoreLevel           B386 
               CSTACK = 00000000 ( 00000002 )
    -------------------------------------------------------------------------
<CODE,LCODE> 1 (was LCODE)
  Relative segment, address: CODE B40E - B43D (0x30 bytes), align: 1
  Segment part 10.
           ENTRY                   ADDRESS         REF BY
           =====                   =======         ======
           ConfigureFll            B40E            main (init)
               calls direct
               CSTACK = 00000000 ( 00000004 )
    -------------------------------------------------------------------------
<CODE,LCODE> 1 (was LCODE)
  Relative segment, address: CODE B43E - B463 (0x26 bytes), align: 1
  Segment part 11.
           ENTRY                   ADDRESS         REF BY
           =====                   =======         ======
           ConfigureXt1External    B43E            SwitchToXtal (init)
               calls direct
               CSTACK = 00000000 ( 00000002 )
    -------------------------------------------------------------------------
<CODE,LCODE> 1 (was LCODE)
  Relative segment, address: CODE B464 - B4A3 (0x40 bytes), align: 1
  Segment part 12.
           ENTRY                   ADDRESS         REF BY
           =====                   =======         ======
           PreEnterDeepSleep       B464            PowerFaultIsr (lagavulin_misc)
               calls direct
               CSTACK = 00000000 ( 00000004 )
    -------------------------------------------------------------------------
<CODE,LCODE> 1 (was LCODE)
  Relative segment, address: CODE CA64 - CA65 (0x2 bytes), align: 1
  Segment part 13.
           ENTRY                   ADDRESS         REF BY
           =====                   =======         ======
           SCSleep                 CA64            main (init)
               CSTACK = 00000000 ( 00000002 )

    *************************************************************************

  FILE NAME : C:\workspace\perforce\lagavulin\armos\rocket\obj\coolriver_rev1\lagavulin_spi.o
  PROGRAM MODULE, NAME : lagavulin_spi

  SEGMENTS IN THE MODULE
  ======================
DATA16_SFR
  Relative segment, address: IDATA 0082 - 0083 (0x2 bytes), align: 0
  Segment part 1. ROOT.
           ENTRY                   ADDRESS         REF BY
           =====                   =======         ======
           SPICN2_REG16            0082 
    -------------------------------------------------------------------------
DATA16_SFR
  Relative segment, address: IDATA 0084 - 0085 (0x2 bytes), align: 0
  Segment part 2. ROOT.
           ENTRY                   ADDRESS         REF BY
           =====                   =======         ======
           SPIST2_REG16            0084 
    -------------------------------------------------------------------------
DATA16_SFR
  Relative segment, address: IDATA 0086 - 0087 (0x2 bytes), align: 0
  Segment part 3. ROOT.
           ENTRY                   ADDRESS         REF BY
           =====                   =======         ======
           SPIB2_REG16             0086 
    -------------------------------------------------------------------------
DATA16_SFR
  Relative segment, address: IDATA 0092 - 0093 (0x2 bytes), align: 0
  Segment part 4. ROOT.
           ENTRY                   ADDRESS         REF BY
           =====                   =======         ======
           SPICF2_REG16            0092 
    -------------------------------------------------------------------------
DATA16_SFR
  Relative segment, address: IDATA 0094 - 0094 (0x1 bytes), align: 0
  Segment part 5. ROOT.
           ENTRY                   ADDRESS         REF BY
           =====                   =======         ======
           SPICK2_REG8             0094 
    -------------------------------------------------------------------------
<CODE,LCODE> 1 (was LCODE)
  Relative segment, address: CODE BCCA - BD31 (0x68 bytes), align: 1
  Segment part 8.
           ENTRY                   ADDRESS         REF BY
           =====                   =======         ======
           PmicWrite               BCCA            ChargerHandler (init)
                                                   HostCtrlDisableSupplies (hostctrl_common)
                                                   HostCtrlInit (hostctrl_common)
                                                   HostCtrlInitiateReset (hostctrl_common)
                                                   HostCtrlPmicRegisterReset (hostctrl_common)
                                                   HostCtrlTimerExpiry (hostctrl_omap4430)
                                                   InitRefGen (lagavulin_adc_hw)
                                                   LagavulinPmicWrite (lagavulin_api)
                                                   PadConfig (lagavulin_gpio)
                                                   PmicFaultHandler (hostctrl_omap4430)
                                                   PmicIntCtrlInit (lagavulin_pmic_intctrl)
                                                   PmicUpdateIntMaskRegisterReal (lagavulin_pmic_intctrl)
                                                   SupplySequenceRunInternal (hostctrl_common)
                                                   main (init)
               calls direct
               CSTACK = 00000000 ( 00000008 )
    -------------------------------------------------------------------------
<CODE,LCODE> 1 (was LCODE)
  Relative segment, address: CODE BC5C - BCC9 (0x6e bytes), align: 1
  Segment part 9.
           ENTRY                   ADDRESS         REF BY
           =====                   =======         ======
           PmicRead                BC5C            AdcConvertHw (lagavulin_adc_hw)
                                                   ChargerHandler (init)
                                                   GpioHandler (lagavulin_gpio)
                                                   HostCtrlDisableSupplies (hostctrl_common)
                                                   HostCtrlInitiateReset (hostctrl_common)
                                                   HostCtrlPmicRegisterReset (hostctrl_common)
                                                   HostCtrlTimerExpiry (hostctrl_omap4430)
                                                   LagavulinPmicRead (lagavulin_api)
                                                   PadConfig (lagavulin_gpio)
                                                   PadRead (lagavulin_gpio)
                                                   PmicFaultHandler (hostctrl_omap4430)
                                                   PmicIntCtrlInit (lagavulin_pmic_intctrl)
                                                   PmicIntctrlRegRead (lagavulin_pmic_intctrl)
                                                   PmicInterruptHandlerReal (lagavulin_pmic_intctrl)
                                                   PmicLDOCFiqHandler (hostctrl_omap4430)
                                                   PmicLDOCIrqHandler (hostctrl_omap4430)
                                                   SupplySequenceRunInternal (hostctrl_common)
                                                   main (init)
               calls direct
               CSTACK = 00000000 ( 00000008 )
    -------------------------------------------------------------------------
<CODE,LCODE> 1 (was LCODE)
  Relative segment, address: CODE C76E - C799 (0x2c bytes), align: 1
  Segment part 10.
           ENTRY                   ADDRESS         REF BY
           =====                   =======         ======
           SpiInit                 C76E            main (init)
               CSTACK = 00000000 ( 00000002 )

    *************************************************************************

  FILE NAME : C:\workspace\perforce\lagavulin\armos\rocket\obj\coolriver_rev1\mq31_flash.o
  LIBRARY MODULE, NAME : flash

  SEGMENTS IN THE MODULE
  ======================
__aseg
  Relative segment, address: CODE 0000, align: 0
  Segment part 1. ROOT.
    -------------------------------------------------------------------------
<CODE> 1 (was CODE)
  Relative segment, address: CODE 63F5 - 640A (0x16 bytes), align: 0
  Segment part 2. ROOT.
           ENTRY                   ADDRESS         REF BY
           =====                   =======         ======
           flash_writeWord         63F5            ProcessUpdateCommand (lagavulin_updater)
                                                   WriteBootloaderMsg (lagavulin_updater)
    -------------------------------------------------------------------------
<CODE> 1 (was CODE)
  Relative segment, address: CODE 640B - 6418 (0xe bytes), align: 0
  Segment part 3. ROOT.       Intra module refs:   flash_crc
           ENTRY                   ADDRESS         REF BY
           =====                   =======         ======
           flash_readWord          640B 
    -------------------------------------------------------------------------
<CODE> 1 (was CODE)
  Relative segment, address: CODE 6419 - 6440 (0x28 bytes), align: 0
  Segment part 4. ROOT.
           ENTRY                   ADDRESS         REF BY
           =====                   =======         ======
           flash_crc               6419            GenerateCrc16 (lagavulin_crc)
    -------------------------------------------------------------------------
<CODE> 1 (was CODE)
  Relative segment, address: CODE 6441 - 6456 (0x16 bytes), align: 0
  Segment part 5. ROOT.
           ENTRY                   ADDRESS         REF BY
           =====                   =======         ======
           flash_erasePage         6441            ProcessUpdateCommand (lagavulin_updater)

    *************************************************************************

  FILE NAME : C:\workspace\perforce\lagavulin\armos\rocket\obj\coolriver_rev1\lagavulin_pmic_intctrl.o
  PROGRAM MODULE, NAME : lagavulin_pmic_intctrl

  SEGMENTS IN THE MODULE
  ======================
DATA16_SFR
  Relative segment, address: IDATA 0080 - 0080 (0x1 bytes), align: 0
  Segment part 1. ROOT.
           ENTRY                   ADDRESS         REF BY
           =====                   =======         ======
           INTCN_REG8              0080 
    -------------------------------------------------------------------------
DATA16_C
  Relative segment, address: CODE 636E - 63AD (0x40 bytes), align: 0
  Segment part 4.             Intra module refs:   PmicInterruptDisable
                                                   PmicInterruptEnable
                                                   PmicRegisterIntHandler
           LOCAL                   ADDRESS         
           =====                   =======         
           PmicInterruptMaskMap    636E 
    -------------------------------------------------------------------------
DATA16_Z
  Relative segment, address: DATA 03D4 - 03F3 (0x20 bytes), align: 1
  Segment part 5.             Intra module refs:   PmicIntCtrlInit
                                                   PmicInterruptHandlerReal
                                                   PmicRegisterIntHandler
           LOCAL                   ADDRESS         
           =====                   =======         
           CorePmicIntHandler      03D4 
    -------------------------------------------------------------------------
DATA16_Z
  Relative segment, address: DATA 0476 - 0477 (0x2 bytes), align: 0
  Segment part 6.             Intra module refs:   PmicIntCtrlInit
                                                   PmicInterruptDisable
                                                   PmicInterruptEnable
                                                   PmicInterruptHandlerReal
                                                   PmicUpdateIntMaskRegisterReal
           LOCAL                   ADDRESS         
           =====                   =======         
           CorePmicIntMaskRegisters
                                   0476 
    -------------------------------------------------------------------------
DATA16_Z
  Relative segment, address: DATA 0478 - 0479 (0x2 bytes), align: 0
  Segment part 7.             Intra module refs:   PmicIntCtrlHostUninit
                                                   PmicIntCtrlInit
                                                   PmicIntctrlRegRead
                                                   PmicIntctrlRegWrite
                                                   PmicInterruptHandlerReal
                                                   PmicUpdateIntMaskRegisterReal
           LOCAL                   ADDRESS         
           =====                   =======         
           HostPmicIntMaskRegisters
                                   0478 
    -------------------------------------------------------------------------
DATA16_Z
  Relative segment, address: DATA 047A - 047B (0x2 bytes), align: 0
  Segment part 8.             Intra module refs:   PmicIntCtrlInit
                                                   PmicIntctrlRegRead
                                                   PmicInterruptHandlerReal
           LOCAL                   ADDRESS         
           =====                   =======         
           HostPmicIntFlagRegisters
                                   047A 
    -------------------------------------------------------------------------
DATA16_Z
  Relative segment, address: DATA 047C - 047C (0x1 bytes), align: 0
  Segment part 9.             Intra module refs:   PmicIntctrlRegWrite
                                                   PmicUpdateIntMaskRegisters
           ENTRY                   ADDRESS         REF BY
           =====                   =======         ======
           IntctrlUpdateStat       047C            LagavulinPmicStopReceived (lagavulin_api)
    -------------------------------------------------------------------------
<CODE,LCODE> 1 (was LCODE)
  Relative segment, address: CODE 92AC - 92D9 (0x2e bytes), align: 1
  Segment part 10.            Intra module refs:   PmicRegisterIntHandler
           LOCAL                   ADDRESS         
           =====                   =======         
           GetBitPos               92AC 
               CSTACK = 00000000 ( 00000002 )
    -------------------------------------------------------------------------
<CODE,LCODE> 1 (was LCODE)
  Relative segment, address: CODE 92DA - 9327 (0x4e bytes), align: 1
  Segment part 11.            Intra module refs:   PmicInterruptDisable
                                                   PmicInterruptEnable
                                                   PmicUpdateIntMaskRegisters
           LOCAL                   ADDRESS         
           =====                   =======         
           PmicUpdateIntMaskRegisterReal
                                   92DA 
               calls direct
               CSTACK = 00000000 ( 00000002 )
    -------------------------------------------------------------------------
<CODE,LCODE> 1 (was LCODE)
  Relative segment, address: CODE 9328 - 9349 (0x22 bytes), align: 1
  Segment part 12.            Intra module refs:   PmicIntCtrlHostUninit
           ENTRY                   ADDRESS         REF BY
           =====                   =======         ======
           PmicUpdateIntMaskRegisters
                                   9328            LagavulinPmicStopReceived (lagavulin_api)
               calls direct
               CSTACK = 00000000 ( 00000002 )
    -------------------------------------------------------------------------
<CODE,LCODE> 1 (was LCODE)
  Relative segment, address: CODE 934A - 9513 (0x1ca bytes), align: 1
  Segment part 13.            Intra module refs:   PmicFiqHandler
                                                   PmicIrqHandler
           LOCAL                   ADDRESS         
           =====                   =======         
           PmicInterruptHandlerReal
                                   934A 
               calls direct and indirect
               CSTACK = 00000000 ( 0000000C )
    -------------------------------------------------------------------------
<CODE,LCODE> 1 (was LCODE)
  Relative segment, address: CODE 9514 - 952F (0x1c bytes), align: 1
  Segment part 14.            Intra module refs:   PmicIntCtrlInit
           LOCAL                   ADDRESS         
           =====                   =======         
           PmicFiqHandler          9514 
               calls direct
               CSTACK = 00000000 ( 00000002 )
    -------------------------------------------------------------------------
<CODE,LCODE> 1 (was LCODE)
  Relative segment, address: CODE 9530 - 954B (0x1c bytes), align: 1
  Segment part 15.            Intra module refs:   PmicIntCtrlInit
           LOCAL                   ADDRESS         
           =====                   =======         
           PmicIrqHandler          9530 
               calls direct
               CSTACK = 00000000 ( 00000002 )
    -------------------------------------------------------------------------
<CODE,LCODE> 1 (was LCODE)
  Relative segment, address: CODE 954C - 965D (0x112 bytes), align: 1
  Segment part 16.
           ENTRY                   ADDRESS         REF BY
           =====                   =======         ======
           PmicIntCtrlInit         954C            main (init)
               calls direct
               CSTACK = 00000000 ( 00000002 )
    -------------------------------------------------------------------------
<CODE,LCODE> 1 (was LCODE)
  Relative segment, address: CODE 965E - 9685 (0x28 bytes), align: 1
  Segment part 17.
           ENTRY                   ADDRESS         REF BY
           =====                   =======         ======
           PmicIntCtrlHostUninit   965E            HostCtrlTimerExpiry (hostctrl_omap4430)
               calls direct
               CSTACK = 00000000 ( 00000004 )
    -------------------------------------------------------------------------
<CODE,LCODE> 1 (was LCODE)
  Relative segment, address: CODE 9686 - 9769 (0xe4 bytes), align: 1
  Segment part 18.
           ENTRY                   ADDRESS         REF BY
           =====                   =======         ======
           PmicInterruptEnable     9686            HostCtrlStateInit (hostctrl_omap4430)
                                                   HostCtrlTimerExpiry (hostctrl_omap4430)
                                                   main (init)
               calls direct
               CSTACK = 00000000 ( 00000004 )
    -------------------------------------------------------------------------
<CODE,LCODE> 1 (was LCODE)
  Relative segment, address: CODE 976A - 9849 (0xe0 bytes), align: 1
  Segment part 19.
           ENTRY                   ADDRESS         REF BY
           =====                   =======         ======
           PmicInterruptDisable    976A            ExternalPwrApplied (hostctrl_omap4430)
                                                   nreswarmIsr (hostctrl_omap4430)
               calls direct
               CSTACK = 00000000 ( 00000004 )
    -------------------------------------------------------------------------
<CODE,LCODE> 1 (was LCODE)
  Relative segment, address: CODE 984A - 98DB (0x92 bytes), align: 1
  Segment part 20.
           ENTRY                   ADDRESS         REF BY
           =====                   =======         ======
           PmicRegisterIntHandler
                                   984A            HostCtrlStateInit (hostctrl_omap4430)
                                                   HostCtrlTimerExpiry (hostctrl_omap4430)
                                                   PadRegisterIntHandler (lagavulin_gpio)
                                                   main (init)
               calls direct
               CSTACK = 00000000 ( 00000006 )
    -------------------------------------------------------------------------
<CODE,LCODE> 1 (was LCODE)
  Relative segment, address: CODE BBEC - BC5B (0x70 bytes), align: 1
  Segment part 21.
           ENTRY                   ADDRESS         REF BY
           =====                   =======         ======
           PmicIntctrlRegRead      BBEC            LagavulinPmicRead (lagavulin_api)
               calls direct
               CSTACK = 00000000 ( 00000004 )
    -------------------------------------------------------------------------
<CODE,LCODE> 1 (was LCODE)
  Relative segment, address: CODE C674 - C6A7 (0x34 bytes), align: 1
  Segment part 22.
           ENTRY                   ADDRESS         REF BY
           =====                   =======         ======
           PmicIntctrlRegWrite     C674            LagavulinPmicWrite (lagavulin_api)
               CSTACK = 00000000 ( 00000002 )

    *************************************************************************

  FILE NAME : C:\workspace\perforce\lagavulin\armos\rocket\obj\coolriver_rev1\lagavulin_intvector.o
  PROGRAM MODULE, NAME : lagavulin_intvector

  SEGMENTS IN THE MODULE
  ======================
DATA16_SFR
  Relative segment, address: IDATA 0344 - 0345 (0x2 bytes), align: 0
  Segment part 1. ROOT.
           ENTRY                   ADDRESS         REF BY
           =====                   =======         ======
           IV_REG16                0344 
    -------------------------------------------------------------------------
DATA16_Z
  Relative segment, address: DATA 03F4 - 0413 (0x20 bytes), align: 1
  Segment part 3.             Intra module refs:   InterruptControllerInit
                                                   RegisterIntHandler
           ENTRY                   ADDRESS         REF BY
           =====                   =======         ======
           InterruptHandler        03F4 
    -------------------------------------------------------------------------
DATA16_Z
  Relative segment, address: DATA 0414 - 0433 (0x20 bytes), align: 1
  Segment part 4.             Intra module refs:   RegisterIntHandler
           ENTRY                   ADDRESS         REF BY
           =====                   =======         ======
           InterruptHandlerActual
                                   0414            Segment part 10 (mq31_inout)
                                                   Segment part 11 (mq31_inout)
                                                   Segment part 12 (mq31_inout)
                                                   Segment part 13 (mq31_inout)
                                                   Segment part 14 (mq31_inout)
                                                   Segment part 15 (mq31_inout)
                                                   Segment part 16 (mq31_inout)
                                                   Segment part 17 (mq31_inout)
                                                   Segment part 2 (mq31_inout)
                                                   Segment part 3 (mq31_inout)
                                                   Segment part 4 (mq31_inout)
                                                   Segment part 5 (mq31_inout)
                                                   Segment part 6 (mq31_inout)
                                                   Segment part 7 (mq31_inout)
                                                   Segment part 8 (mq31_inout)
                                                   Segment part 9 (mq31_inout)
    -------------------------------------------------------------------------
<CODE,LCODE> 1 (was LCODE)
  Relative segment, address: CODE B8E4 - B8F9 (0x16 bytes), align: 1
  Segment part 5.             Intra module refs:   RegisterIntHandler
           LOCAL                   ADDRESS         
           =====                   =======         
           getIsr                  B8E4 
               CSTACK = 00000000 ( 00000002 )
    -------------------------------------------------------------------------
<CODE,LCODE> 1 (was LCODE)
  Relative segment, address: CODE B8FA - B903 (0xa bytes), align: 1
  Segment part 6.             Intra module refs:   InterruptControllerInit
           LOCAL                   ADDRESS         
           =====                   =======         
           unregisteredHandler     B8FA 
               calls direct
               CSTACK = 00000000 ( 00000002 )
    -------------------------------------------------------------------------
<CODE,LCODE> 1 (was LCODE)
  Relative segment, address: CODE B904 - B93D (0x3a bytes), align: 1
  Segment part 7.
           ENTRY                   ADDRESS         REF BY
           =====                   =======         ======
           InterruptControllerInit
                                   B904            main (init)
               CSTACK = 00000000 ( 00000002 )
    -------------------------------------------------------------------------
<CODE,LCODE> 1 (was LCODE)
  Relative segment, address: CODE B93E - B9A5 (0x68 bytes), align: 1
  Segment part 8.
           ENTRY                   ADDRESS         REF BY
           =====                   =======         ======
           RegisterIntHandler      B93E            AdcInitHw (lagavulin_adc_hw)
                                                   ConfigureRstNmi (lagavulin_misc)
                                                   GpioInit (lagavulin_gpio)
                                                   I2cInitInternalBus (lagavulin_i2c)
                                                   PmicIntCtrlInit (lagavulin_pmic_intctrl)
                                                   TimerHWInit (lagavulin_timer)
               calls direct
               CSTACK = 00000000 ( 00000004 )

    *************************************************************************

  FILE NAME : C:\workspace\perforce\lagavulin\armos\rocket\obj\coolriver_rev1\lagavulin_updater.o
  PROGRAM MODULE, NAME : lagavulin_updater

  SEGMENTS IN THE MODULE
  ======================
DATA16_SFR
  Relative segment, address: IDATA 0210 - 0211 (0x2 bytes), align: 0
  Segment part 1. ROOT.
           ENTRY                   ADDRESS         REF BY
           =====                   =======         ======
           SC_REG16                0210 
    -------------------------------------------------------------------------
DATA16_Z
  Relative segment, address: DATA 047D - 047D (0x1 bytes), align: 0
  Segment part 3.             Intra module refs:   ProcessUpdateCommand
                                                   UpdaterRegWrite
                                                   UpdaterStartReceived
           ENTRY                   ADDRESS         REF BY
           =====                   =======         ======
           CmdIndex                047D 
    -------------------------------------------------------------------------
DATA16_I
  Relative segment, address: DATA 00A4 - 00E5 (0x42 bytes), align: 1
  Segment part 4.             Intra module refs:   ProcessUpdateCommand
                                                   UpdaterRegWrite
                                                   UpdaterStartReceived
                                                   UpdaterStopReceived
           ENTRY                   ADDRESS         REF BY
           =====                   =======         ======
           Cmd                     00A4 
    -------------------------------------------------------------------------
DATA16_Z
  Relative segment, address: DATA 0434 - 0435 (0x2 bytes), align: 1
  Segment part 6.             Intra module refs:   ProcessUpdateCommand
           ENTRY                   ADDRESS         REF BY
           =====                   =======         ======
           UpdateSize              0434 
    -------------------------------------------------------------------------
DATA16_Z
  Relative segment, address: DATA 0436 - 0437 (0x2 bytes), align: 1
  Segment part 7.             Intra module refs:   ProcessUpdateCommand
           ENTRY                   ADDRESS         REF BY
           =====                   =======         ======
           UpdateBytesWritten      0436 
    -------------------------------------------------------------------------
DATA16_Z
  Relative segment, address: DATA 047E - 047E (0x1 bytes), align: 0
  Segment part 8.             Intra module refs:   UpdaterRegWrite
                                                   UpdaterStopReceived
           ENTRY                   ADDRESS         REF BY
           =====                   =======         ======
           UpdatePermission        047E 
    -------------------------------------------------------------------------
DATA16_I
  Relative segment, address: DATA 00E8 - 00E8 (0x1 bytes), align: 0
  Segment part 9.             Intra module refs:   ProcessUpdateCommand
                                                   UpdaterRegRead
                                                   UpdaterRegWrite
                                                   UpdaterStartReceived
                                                   UpdaterStopReceived
           ENTRY                   ADDRESS         REF BY
           =====                   =======         ======
           UpdateResponse          00E8 
    -------------------------------------------------------------------------
DATA16_Z
  Relative segment, address: DATA 0438 - 0439 (0x2 bytes), align: 1
  Segment part 12.            Intra module refs:   CodeUpdateStateInit
                                                   ProcessUpdateCommand
                                                   UpdaterRegRead
           ENTRY                   ADDRESS         REF BY
           =====                   =======         ======
           AppCallsAllowed         0438            HostCtrlInitiateReset (hostctrl_common)
                                                   HostCtrlTimerExpiry (hostctrl_omap4430)
                                                   LagavulinRegRead (lagavulin_api)
                                                   LagavulinRegWrite (lagavulin_api)
                                                   PreEnterDeepSleep (lagavulin_slowclock)
                                                   RimInitiateReset (lagavulin_misc)
    -------------------------------------------------------------------------
<CODE,LCODE> 1 (was LCODE)
  Relative segment, address: CODE 853A - 8545 (0xc bytes), align: 1
  Segment part 13.            Intra module refs:   ProcessUpdateCommand
           LOCAL                   ADDRESS         
           =====                   =======         
           IsJtagEnabled           853A 
               CSTACK = 00000000 ( 00000002 )
    -------------------------------------------------------------------------
<CODE,LCODE> 1 (was LCODE)
  Relative segment, address: CODE 8546 - 8645 (0x100 bytes), align: 1
  Segment part 14.
           ENTRY                   ADDRESS         REF BY
           =====                   =======         ======
           CodeUpdateStateInit     8546            main (init)
               calls direct
               CSTACK = 00000000 ( 00000002 )
    -------------------------------------------------------------------------
<CODE,LCODE> 1 (was LCODE)
  Relative segment, address: CODE 8646 - 8729 (0xe4 bytes), align: 1
  Segment part 15.            Intra module refs:   CodeUpdateStateInit
                                                   ProcessUpdateCommand
           ENTRY                   ADDRESS         REF BY
           =====                   =======         ======
           IsImageValid            8646 
               calls direct
               CSTACK = 00000000 ( 00000004 )
    -------------------------------------------------------------------------
<CODE,LCODE> 1 (was LCODE)
  Relative segment, address: CODE 872A - 8755 (0x2c bytes), align: 1
  Segment part 16.            Intra module refs:   ProcessUpdateCommand
           LOCAL                   ADDRESS         
           =====                   =======         
           WriteBootloaderMsg      872A 
               calls direct
               CSTACK = 00000000 ( 00000006 )
    -------------------------------------------------------------------------
<CODE,LCODE> 1 (was LCODE)
  Relative segment, address: CODE 8756 - 8BFF (0x4aa bytes), align: 1
  Segment part 17.            Intra module refs:   Segment part 22
                                                   UpdaterStopReceived
           LOCAL                   ADDRESS         
           =====                   =======         
           ProcessUpdateCommand    8756 
               calls direct and indirect
               CSTACK = 00000000 ( 00000006 )
    -------------------------------------------------------------------------
<CODE,LCODE> 1 (was LCODE)
  Relative segment, address: CODE C79A - C7C3 (0x2a bytes), align: 1
  Segment part 18.            Intra module refs:   CodeUpdateStateInit
           ENTRY                   ADDRESS         REF BY
           =====                   =======         ======
           UpdaterRegRead          C79A 
               CSTACK = 00000000 ( 00000002 )
    -------------------------------------------------------------------------
<CODE,LCODE> 1 (was LCODE)
  Relative segment, address: CODE C80C - C829 (0x1e bytes), align: 1
  Segment part 19.            Intra module refs:   CodeUpdateStateInit
           ENTRY                   ADDRESS         REF BY
           =====                   =======         ======
           UpdaterStartReceived    C80C 
               CSTACK = 00000000 ( 00000002 )
    -------------------------------------------------------------------------
<CODE,LCODE> 1 (was LCODE)
  Relative segment, address: CODE C5C4 - C603 (0x40 bytes), align: 1
  Segment part 20.            Intra module refs:   CodeUpdateStateInit
           ENTRY                   ADDRESS         REF BY
           =====                   =======         ======
           UpdaterStopReceived     C5C4 
               calls direct
               CSTACK = 00000000 ( 00000002 )
    -------------------------------------------------------------------------
<CODE,LCODE> 1 (was LCODE)
  Relative segment, address: CODE B672 - B74B (0xda bytes), align: 1
  Segment part 21.            Intra module refs:   CodeUpdateStateInit
           ENTRY                   ADDRESS         REF BY
           =====                   =======         ======
           UpdaterRegWrite         B672 
               CSTACK = 00000000 ( 00000002 )
    -------------------------------------------------------------------------
DATA16_ID
  Relative segment, address: CODE 63B0 - 63F1 (0x42 bytes), align: 1
  Segment part 5.             Intra module refs:   Cmd
    -------------------------------------------------------------------------
DATA16_ID
  Relative segment, address: CODE 63F4 - 63F4 (0x1 bytes), align: 0
  Segment part 10.            Intra module refs:   UpdateResponse
    -------------------------------------------------------------------------
DATA16_C
  Relative segment, address: CODE 6296 - 62A7 (0x12 bytes), align: 1
  Segment part 22.            Intra module refs:   ProcessUpdateCommand

    *************************************************************************

  FILE NAME : C:\workspace\perforce\lagavulin\armos\rocket\obj\coolriver_rev1\lagavulin_crc.o
  PROGRAM MODULE, NAME : lagavulin_crc

  SEGMENTS IN THE MODULE
  ======================
<CODE,LCODE> 1 (was LCODE)
  Relative segment, address: CODE C710 - C741 (0x32 bytes), align: 1
  Segment part 2.
           ENTRY                   ADDRESS         REF BY
           =====                   =======         ======
           GenerateCrc16           C710            IsImageValid (lagavulin_updater)
               calls direct
               CSTACK = 00000000 ( 00000006 )

    *************************************************************************

  FILE NAME : C:\workspace\perforce\lagavulin\armos\rocket\obj\coolriver_rev1\lagavulin_adc_hw.o
  PROGRAM MODULE, NAME : lagavulin_adc_hw

  SEGMENTS IN THE MODULE
  ======================
DATA16_SFR
  Relative segment, address: IDATA 0100 - 0101 (0x2 bytes), align: 0
  Segment part 1. ROOT.
           ENTRY                   ADDRESS         REF BY
           =====                   =======         ======
           ADCN_REG16              0100 
    -------------------------------------------------------------------------
DATA16_SFR
  Relative segment, address: IDATA 0102 - 0103 (0x2 bytes), align: 0
  Segment part 2. ROOT.
           ENTRY                   ADDRESS         REF BY
           =====                   =======         ======
           ADSEL0_REG16            0102 
    -------------------------------------------------------------------------
DATA16_SFR
  Relative segment, address: IDATA 0104 - 0104 (0x1 bytes), align: 0
  Segment part 3. ROOT.
           ENTRY                   ADDRESS         REF BY
           =====                   =======         ======
           ADSEL1_REG8             0104 
    -------------------------------------------------------------------------
DATA16_SFR
  Relative segment, address: IDATA 0108 - 0109 (0x2 bytes), align: 0
  Segment part 4. ROOT.
           ENTRY                   ADDRESS         REF BY
           =====                   =======         ======
           ADST_REG16              0108 
    -------------------------------------------------------------------------
DATA16_SFR
  Relative segment, address: IDATA 010A - 010A (0x1 bytes), align: 0
  Segment part 5. ROOT.
           ENTRY                   ADDRESS         REF BY
           =====                   =======         ======
           ADCH_REG8               010A 
    -------------------------------------------------------------------------
DATA16_SFR
  Relative segment, address: IDATA 0110 - 0111 (0x2 bytes), align: 0
  Segment part 6. ROOT.
           ENTRY                   ADDRESS         REF BY
           =====                   =======         ======
           ADDATA_REG16            0110 
    -------------------------------------------------------------------------
DATA16_Z
  Relative segment, address: DATA 043A - 043B (0x2 bytes), align: 1
  Segment part 9.             Intra module refs:   AdcCompleteIsrHw
                                                   AdcConvertHw
           ENTRY                   ADDRESS         REF BY
           =====                   =======         ======
           ConvCompleteCallback    043A 
    -------------------------------------------------------------------------
DATA16_Z
  Relative segment, address: DATA 043C - 043D (0x2 bytes), align: 1
  Segment part 10.            Intra module refs:   AdcCompleteIsrHw
                                                   AdcConvertHw
                                                   AdcRawCb
           ENTRY                   ADDRESS         REF BY
           =====                   =======         ======
           SampleResult            043C 
    -------------------------------------------------------------------------
DATA16_Z
  Relative segment, address: DATA 047F - 047F (0x1 bytes), align: 0
  Segment part 11.            Intra module refs:   AdcCompleteIsrHw
                                                   AdcInitHw
                                                   AdcRawCb
                                                   AdcRawConvert
                                                   AdcRawConvertVsys
                                                   AdcRawRegRead
                                                   AdcRawRegWrite
                                                   AdcRawStopReceived
           LOCAL                   ADDRESS         
           =====                   =======         
           Config0                 047F 
    -------------------------------------------------------------------------
DATA16_Z
  Relative segment, address: DATA 0480 - 0480 (0x1 bytes), align: 0
  Segment part 12.            Intra module refs:   AdcRawCb
                                                   AdcRawConvert
           LOCAL                   ADDRESS         
           =====                   =======         
           RawNumSamples           0480 
    -------------------------------------------------------------------------
DATA16_Z
  Relative segment, address: DATA 043E - 043F (0x2 bytes), align: 1
  Segment part 13.            Intra module refs:   AdcRawCb
                                                   AdcRawConvert
           LOCAL                   ADDRESS         
           =====                   =======         
           RawSampling             043E 
    -------------------------------------------------------------------------
DATA16_Z
  Relative segment, address: DATA 0440 - 0443 (0x4 bytes), align: 1
  Segment part 14.            Intra module refs:   AdcRawCb
                                                   AdcRawConvert
           LOCAL                   ADDRESS         
           =====                   =======         
           RawResultTotal          0440 
    -------------------------------------------------------------------------
DATA16_Z
  Relative segment, address: DATA 0444 - 0445 (0x2 bytes), align: 1
  Segment part 15.            Intra module refs:   AdcInitHw
                                                   AdcRawCb
                                                   AdcRawConvert
                                                   AdcRawConvertVsys
                                                   AdcRawRegRead
           LOCAL                   ADDRESS         
           =====                   =======         
           RawResultAvg            0444 
    -------------------------------------------------------------------------
<CODE,LCODE> 1 (was LCODE)
  Relative segment, address: CODE BA68 - BA71 (0xa bytes), align: 1
  Segment part 16.            Intra module refs:   AdcInitHw
           LOCAL                   ADDRESS         
           =====                   =======         
           InitRefGen              BA68 
               calls direct
               CSTACK = 00000000 ( 00000002 )
    -------------------------------------------------------------------------
<CODE,LCODE> 1 (was LCODE)
  Relative segment, address: CODE BA72 - BABF (0x4e bytes), align: 1
  Segment part 18.            Intra module refs:   AdcInitHw
           ENTRY                   ADDRESS         REF BY
           =====                   =======         ======
           AdcCompleteIsrHw        BA72 
               calls direct and indirect
               CSTACK = 00000000 ( 00000002 )
    -------------------------------------------------------------------------
<CODE,LCODE> 1 (was LCODE)
  Relative segment, address: CODE BAC0 - BAFB (0x3c bytes), align: 1
  Segment part 19.
           ENTRY                   ADDRESS         REF BY
           =====                   =======         ======
           AdcInitHw               BAC0            main (init)
               calls direct
               CSTACK = 00000000 ( 00000002 )
    -------------------------------------------------------------------------
<CODE,LCODE> 1 (was LCODE)
  Relative segment, address: CODE A5A6 - A68B (0xe6 bytes), align: 1
  Segment part 21.            Intra module refs:   AdcRawCb
                                                   AdcRawConvert
           ENTRY                   ADDRESS         REF BY
           =====                   =======         ======
           AdcConvertHw            A5A6 
               calls direct and indirect
               CSTACK = 00000000 ( 00000008 )
    -------------------------------------------------------------------------
<CODE,LCODE> 1 (was LCODE)
  Relative segment, address: CODE A68C - A73D (0xb2 bytes), align: 1
  Segment part 22.            Intra module refs:   AdcInitHw
                                                   AdcRawConvert
           LOCAL                   ADDRESS         
           =====                   =======         
           AdcRawCb                A68C 
               calls direct
               CSTACK = 00000000 ( 00000002 )
    -------------------------------------------------------------------------
<CODE,LCODE> 1 (was LCODE)
  Relative segment, address: CODE A73E - A773 (0x36 bytes), align: 1
  Segment part 23.            Intra module refs:   AdcRawConvertVsys
                                                   AdcRawStopReceived
           LOCAL                   ADDRESS         
           =====                   =======         
           AdcRawConvert           A73E 
               calls direct
               CSTACK = 00000000 ( 00000002 )
    -------------------------------------------------------------------------
<CODE,LCODE> 1 (was LCODE)
  Relative segment, address: CODE A774 - A797 (0x24 bytes), align: 1
  Segment part 24.
           ENTRY                   ADDRESS         REF BY
           =====                   =======         ======
           AdcRawConvertVsys       A774            HostCtrlTimerExpiry (hostctrl_omap4430)
               calls direct
               CSTACK = 00000000 ( 00000002 )
    -------------------------------------------------------------------------
<CODE,LCODE> 1 (was LCODE)
  Relative segment, address: CODE A798 - A79D (0x6 bytes), align: 1
  Segment part 25.
           ENTRY                   ADDRESS         REF BY
           =====                   =======         ======
           AdcHalt                 A798            PreEnterDeepSleep (lagavulin_slowclock)
               CSTACK = 00000000 ( 00000002 )
    -------------------------------------------------------------------------
<CODE,LCODE> 1 (was LCODE)
  Relative segment, address: CODE A79E - A7EB (0x4e bytes), align: 1
  Segment part 26.            Intra module refs:   AdcInitHw
           ENTRY                   ADDRESS         REF BY
           =====                   =======         ======
           AdcRawRegRead           A79E 
               CSTACK = 00000000 ( 00000002 )
    -------------------------------------------------------------------------
<CODE,LCODE> 1 (was LCODE)
  Relative segment, address: CODE A7EC - A7FD (0x12 bytes), align: 1
  Segment part 27.            Intra module refs:   AdcInitHw
           ENTRY                   ADDRESS         REF BY
           =====                   =======         ======
           AdcRawRegWrite          A7EC 
               CSTACK = 00000000 ( 00000002 )
    -------------------------------------------------------------------------
<CODE,LCODE> 1 (was LCODE)
  Relative segment, address: CODE A7FE - A845 (0x48 bytes), align: 1
  Segment part 28.            Intra module refs:   AdcInitHw
           ENTRY                   ADDRESS         REF BY
           =====                   =======         ======
           AdcRawStopReceived      A7FE 
               calls direct
               CSTACK = 00000000 ( 00000002 )

    *************************************************************************

  FILE NAME : C:\workspace\perforce\lagavulin\armos\rocket\obj\coolriver_rev1\mq31_inout.o
  PROGRAM MODULE, NAME : mq31_inout

  SEGMENTS IN THE MODULE
  ======================
<CODE,LCODE> 1 (was LCODE)
  Relative segment, address: CODE C10A - C16B (0x62 bytes), align: 1
  Segment part 2. ROOT.
           ENTRY                   ADDRESS         REF BY
           =====                   =======         ======
           ?ISR0                   C10A            ?INTERRUPT0 (?INTERRUPT0)
           maxq31isr0              C10A 
               interrupt function
               calls indirect
               CSTACK = 00000000 ( 00000024 )
    -------------------------------------------------------------------------
<CODE,LCODE> 1 (was LCODE)
  Relative segment, address: CODE C0A8 - C109 (0x62 bytes), align: 1
  Segment part 3. ROOT.
           ENTRY                   ADDRESS         REF BY
           =====                   =======         ======
           ?ISR1                   C0A8            ?INTERRUPT1 (?INTERRUPT1)
           maxq31isr1              C0A8 
               interrupt function
               calls indirect
               CSTACK = 00000000 ( 00000024 )
    -------------------------------------------------------------------------
<CODE,LCODE> 1 (was LCODE)
  Relative segment, address: CODE BF82 - BFE3 (0x62 bytes), align: 1
  Segment part 4. ROOT.
           ENTRY                   ADDRESS         REF BY
           =====                   =======         ======
           ?ISR2                   BF82            ?INTERRUPT2 (?INTERRUPT2)
           maxq31isr2              BF82 
               interrupt function
               calls indirect
               CSTACK = 00000000 ( 00000024 )
    -------------------------------------------------------------------------
<CODE,LCODE> 1 (was LCODE)
  Relative segment, address: CODE BEBE - BF1F (0x62 bytes), align: 1
  Segment part 5. ROOT.
           ENTRY                   ADDRESS         REF BY
           =====                   =======         ======
           ?ISR3                   BEBE            ?INTERRUPT3 (?INTERRUPT3)
           maxq31isr3              BEBE 
               interrupt function
               calls indirect
               CSTACK = 00000000 ( 00000024 )
    -------------------------------------------------------------------------
<CODE,LCODE> 1 (was LCODE)
  Relative segment, address: CODE BE5C - BEBD (0x62 bytes), align: 1
  Segment part 6. ROOT.
           ENTRY                   ADDRESS         REF BY
           =====                   =======         ======
           ?ISR4                   BE5C            ?INTERRUPT4 (?INTERRUPT4)
           maxq31isr4              BE5C 
               interrupt function
               calls indirect
               CSTACK = 00000000 ( 00000024 )
    -------------------------------------------------------------------------
<CODE,LCODE> 1 (was LCODE)
  Relative segment, address: CODE C3B8 - C419 (0x62 bytes), align: 1
  Segment part 7. ROOT.
           ENTRY                   ADDRESS         REF BY
           =====                   =======         ======
           ?ISR5                   C3B8            ?INTERRUPT5 (?INTERRUPT5)
           maxq31isr5              C3B8 
               interrupt function
               calls indirect
               CSTACK = 00000000 ( 00000024 )
    -------------------------------------------------------------------------
<CODE,LCODE> 1 (was LCODE)
  Relative segment, address: CODE C2F4 - C355 (0x62 bytes), align: 1
  Segment part 8. ROOT.
           ENTRY                   ADDRESS         REF BY
           =====                   =======         ======
           ?ISR6                   C2F4            ?INTERRUPT6 (?INTERRUPT6)
           maxq31isr6              C2F4 
               interrupt function
               calls indirect
               CSTACK = 00000000 ( 00000024 )
    -------------------------------------------------------------------------
<CODE,LCODE> 1 (was LCODE)
  Relative segment, address: CODE BDFA - BE5B (0x62 bytes), align: 1
  Segment part 9. ROOT.
           ENTRY                   ADDRESS         REF BY
           =====                   =======         ======
           ?ISR7                   BDFA            ?INTERRUPT7 (?INTERRUPT7)
           maxq31isr7              BDFA 
               interrupt function
               calls indirect
               CSTACK = 00000000 ( 00000024 )
    -------------------------------------------------------------------------
<CODE,LCODE> 1 (was LCODE)
  Relative segment, address: CODE BF20 - BF81 (0x62 bytes), align: 1
  Segment part 10. ROOT.
           ENTRY                   ADDRESS         REF BY
           =====                   =======         ======
           ?ISR8                   BF20            ?INTERRUPT8 (?INTERRUPT8)
           maxq31isr8              BF20 
               interrupt function
               calls indirect
               CSTACK = 00000000 ( 00000024 )
    -------------------------------------------------------------------------
<CODE,LCODE> 1 (was LCODE)
  Relative segment, address: CODE C046 - C0A7 (0x62 bytes), align: 1
  Segment part 11. ROOT.
           ENTRY                   ADDRESS         REF BY
           =====                   =======         ======
           ?ISR9                   C046            ?INTERRUPT9 (?INTERRUPT9)
           maxq31isr9              C046 
               interrupt function
               calls indirect
               CSTACK = 00000000 ( 00000024 )
    -------------------------------------------------------------------------
<CODE,LCODE> 1 (was LCODE)
  Relative segment, address: CODE C16C - C1CD (0x62 bytes), align: 1
  Segment part 12. ROOT.
           ENTRY                   ADDRESS         REF BY
           =====                   =======         ======
           ?ISR10                  C16C            ?INTERRUPT10 (?INTERRUPT10)
           maxq31isr10             C16C 
               interrupt function
               calls indirect
               CSTACK = 00000000 ( 00000024 )
    -------------------------------------------------------------------------
<CODE,LCODE> 1 (was LCODE)
  Relative segment, address: CODE C1CE - C22F (0x62 bytes), align: 1
  Segment part 13. ROOT.
           ENTRY                   ADDRESS         REF BY
           =====                   =======         ======
           ?ISR11                  C1CE            ?INTERRUPT11 (?INTERRUPT11)
           maxq31isr11             C1CE 
               interrupt function
               calls indirect
               CSTACK = 00000000 ( 00000024 )
    -------------------------------------------------------------------------
<CODE,LCODE> 1 (was LCODE)
  Relative segment, address: CODE C230 - C291 (0x62 bytes), align: 1
  Segment part 14. ROOT.
           ENTRY                   ADDRESS         REF BY
           =====                   =======         ======
           ?ISR12                  C230            ?INTERRUPT12 (?INTERRUPT12)
           maxq31isr12             C230 
               interrupt function
               calls indirect
               CSTACK = 00000000 ( 00000024 )
    -------------------------------------------------------------------------
<CODE,LCODE> 1 (was LCODE)
  Relative segment, address: CODE C292 - C2F3 (0x62 bytes), align: 1
  Segment part 15. ROOT.
           ENTRY                   ADDRESS         REF BY
           =====                   =======         ======
           ?ISR13                  C292            ?INTERRUPT13 (?INTERRUPT13)
           maxq31isr13             C292 
               interrupt function
               calls indirect
               CSTACK = 00000000 ( 00000024 )
    -------------------------------------------------------------------------
<CODE,LCODE> 1 (was LCODE)
  Relative segment, address: CODE C356 - C3B7 (0x62 bytes), align: 1
  Segment part 16. ROOT.
           ENTRY                   ADDRESS         REF BY
           =====                   =======         ======
           ?ISR14                  C356            ?INTERRUPT14 (?INTERRUPT14)
           maxq31isr14             C356 
               interrupt function
               calls indirect
               CSTACK = 00000000 ( 00000024 )
    -------------------------------------------------------------------------
<CODE,LCODE> 1 (was LCODE)
  Relative segment, address: CODE BFE4 - C045 (0x62 bytes), align: 1
  Segment part 17. ROOT.
           ENTRY                   ADDRESS         REF BY
           =====                   =======         ======
           ?ISR15                  BFE4            ?INTERRUPT15 (?INTERRUPT15)
           maxq31isr15             BFE4 
               interrupt function
               calls indirect
               CSTACK = 00000000 ( 00000024 )

    *************************************************************************

  FILE NAME : C:\workspace\perforce\lagavulin\armos\rocket\obj\coolriver_rev1\app_stubs.o
  PROGRAM MODULE, NAME : app_stubs

  SEGMENTS IN THE MODULE
  ======================
<CODE,LCODE> 1 (was LCODE)
  Relative segment, address: CODE CA50 - CA51 (0x2 bytes), align: 1
  Segment part 3.
           ENTRY                   ADDRESS         REF BY
           =====                   =======         ======
           AppEntrypoint           CA50            AppImageInfo (lagavulin_metrics)
                                                   HostCtrlStateInit (hostctrl_omap4430)
               CSTACK = 00000000 ( 00000002 )
    -------------------------------------------------------------------------
<CODE,LCODE> 1 (was LCODE)
  Relative segment, address: CODE CA4E - CA4F (0x2 bytes), align: 1
  Segment part 4.
           ENTRY                   ADDRESS         REF BY
           =====                   =======         ======
           AppExitpoint            CA4E            HostCtrlInitiateReset (hostctrl_common)
                                                   PreEnterDeepSleep (lagavulin_slowclock)
                                                   ProcessUpdateCommand (lagavulin_updater)
               CSTACK = 00000000 ( 00000002 )
    -------------------------------------------------------------------------
<CODE,LCODE> 1 (was LCODE)
  Relative segment, address: CODE CA4C - CA4D (0x2 bytes), align: 1
  Segment part 6.
           ENTRY                   ADDRESS         REF BY
           =====                   =======         ======
           AdcInit                 CA4C            HostCtrlInitiateReset (hostctrl_common)
               CSTACK = 00000000 ( 00000002 )
    -------------------------------------------------------------------------
<CODE,LCODE> 1 (was LCODE)
  Relative segment, address: CODE CA58 - CA59 (0x2 bytes), align: 1
  Segment part 7.
           ENTRY                   ADDRESS         REF BY
           =====                   =======         ======
           AdcUninit               CA58            HostCtrlInitiateReset (hostctrl_common)
               CSTACK = 00000000 ( 00000002 )
    -------------------------------------------------------------------------
<CODE,LCODE> 1 (was LCODE)
  Relative segment, address: CODE CA4A - CA4B (0x2 bytes), align: 1
  Segment part 10.
           ENTRY                   ADDRESS         REF BY
           =====                   =======         ======
           UtcInit                 CA4A            HostCtrlTimerExpiry (hostctrl_omap4430)
               CSTACK = 00000000 ( 00000002 )
    -------------------------------------------------------------------------
<CODE,LCODE> 1 (was LCODE)
  Relative segment, address: CODE CA52 - CA53 (0x2 bytes), align: 1
  Segment part 11.
           ENTRY                   ADDRESS         REF BY
           =====                   =======         ======
           UtcBackup               CA52            RimInitiateReset (lagavulin_misc)
               CSTACK = 00000000 ( 00000002 )
    -------------------------------------------------------------------------
<CODE,LCODE> 1 (was LCODE)
  Relative segment, address: CODE CA56 - CA57 (0x2 bytes), align: 1
  Segment part 12.
           ENTRY                   ADDRESS         REF BY
           =====                   =======         ======
           UtcDisable              CA56            LagavulinRegWrite (lagavulin_api)
                                                   ProcessUpdateCommand (lagavulin_updater)
               CSTACK = 00000000 ( 00000002 )
    -------------------------------------------------------------------------
<CODE,LCODE> 1 (was LCODE)
  Relative segment, address: CODE CA40 - CA43 (0x4 bytes), align: 1
  Segment part 13.
           ENTRY                   ADDRESS         REF BY
           =====                   =======         ======
           UtcIsDisabled           CA40            LagavulinRegRead (lagavulin_api)
               CSTACK = 00000000 ( 00000002 )
    -------------------------------------------------------------------------
<CODE,LCODE> 1 (was LCODE)
  Relative segment, address: CODE CA66 - CA67 (0x2 bytes), align: 1
  Segment part 14.
           ENTRY                   ADDRESS         REF BY
           =====                   =======         ======
           UtcGetTime              CA66            LagavulinRegRead (lagavulin_api)
               CSTACK = 00000000 ( 00000002 )
    -------------------------------------------------------------------------
<CODE,LCODE> 1 (was LCODE)
  Relative segment, address: CODE CA48 - CA49 (0x2 bytes), align: 1
  Segment part 15.
           ENTRY                   ADDRESS         REF BY
           =====                   =======         ======
           UtcSetTime              CA48            LagavulinRegWrite (lagavulin_api)
               CSTACK = 00000000 ( 00000002 )

    *************************************************************************

  FILE NAME : C:\workspace\perforce\lagavulin\armos\rocket\iarmaxq230\lib\cstartup_usr.r66
  PROGRAM MODULE, NAME : __ULDR_PASSWORD

  SEGMENTS IN THE MODULE
  ======================
__ULDR_PASSWORD
  Relative segment, address: CODE 3E00 - 3E07 (0x8 bytes), align: 0
  Segment part 1. ROOT.
    -------------------------------------------------------------------------
__ULDR_PASSWORD
  Relative segment, address: CODE 3E1E - 3E3F (0x22 bytes), align: 0
  Segment part 2. ROOT.

    -------------------------------------------------------------------------
  PROGRAM MODULE, NAME : ?USR_MG_ENTRY

  SEGMENTS IN THE MODULE
  ======================
ULDR_SECTOR
  Relative segment, address: CODE 4000 - 4087 (0x88 bytes), align: 1
  Segment part 1. ROOT.
           ENTRY                   ADDRESS         REF BY
           =====                   =======         ======
           addL2UL                 406C            usr_addL2UL (mgLib)
                                                   usr_doReport (mgLib)
           addULNG                 4068            usr_addULNG (mgLib)
           addWORD                 4064            usr_addWORD (mgLib)
           chgQresTable            4078            usr_chgQresTable (mgLib)
           compFCTC                4070            usr_compFCTC (mgLib)
           doACC                   403C            usr_doACC (mgLib)
           doEmpty                 4048            usr_doEmpty (mgLib)
           doFirstVolt             402C            initModelGauge (mgLib)
           doFullDet               4050 
           doInsertion             4030            usr_doInsertion (mgLib)
           doLrnFull               405C            usr_doLrnFull (mgLib)
           doLrnRCOMP              4058            usr_doLrnRCOMP (mgLib)
           doMG_Barcelona          401C            usr_doMG_Barcelona (mgLib)
           doMG_BocaJ              4024            usr_doMG_BocaJ (mgLib)
           doMG_Manchester         4020            usr_doMG_Manchester (mgLib)
           doMG_Santos             4028            usr_doMG_Santos (mgLib)
           doMisc                  404C            usr_doMisc (mgLib)
           doMixing                4038            usr_doMixing (mgLib)
           doModelGauge            4018            exeModelGauge (mgLib)
           doRelax                 4054            usr_doRelax (mgLib)
           doReport                4040 
           doRslow                 4060            usr_doRslow (mgLib)
           doTakedQ                4034 
           doTempCo                4044            usr_doTempCo (mgLib)
           getQresTable            4074            usr_getQresTable (mgLib)
           loadRegisters           4004            exeModelGauge (mgLib)
           mgGetMixOCV             4014            usr_mgGetMixOCV (mgLib)
           mgGetVFOCV              400C            exeModelGauge (mgLib)
           mgGetVFSOC              4010            usr_mgGetVFSOC (mgLib)
           mulDivL                 4084            Segment part 75 (mgLib)
                                                   usr_mulDivL (mgLib)
           mulDivW                 4080            usr_doFullDet (mgLib)
                                                   usr_doReport (mgLib)
                                                   usr_mulDivW (mgLib)
           regModelGauge           4000 
           sizeofBit               407C            usr_sizeofBit (mgLib)
           storeRegisters          4008            exeModelGauge (mgLib)
                                                   initModelGauge (mgLib)

    -------------------------------------------------------------------------
  PROGRAM MODULE, NAME : __USR_CSTARTUP

  SEGMENTS IN THE MODULE
  ======================
RCODE
  Relative segment, address: CODE 6140, align: 0
  Segment part 2. ROOT.
           ENTRY                   ADDRESS         REF BY
           =====                   =======         ======
           __USR_CSTARTUP          6140            Segment part 1 (__ULDR_PASSWORD)
           __program_start         6140 

    -------------------------------------------------------------------------
  LIBRARY MODULE, NAME : init_dpc

  SEGMENTS IN THE MODULE
  ======================
RCODE
  Relative segment, address: CODE 6140 - 6141 (0x2 bytes), align: 1
  Segment part 1.
           ENTRY                   ADDRESS         REF BY
           =====                   =======         ======
           ?init_dpc               6140            ?cstart_init_copy (?cstart_init_copy)
                                                   ?cstart_init_zero (?cstart_init_zero)
                                                   Segment part 2 (__USR_CSTARTUP)

    -------------------------------------------------------------------------
  LIBRARY MODULE, NAME : ?cstart_init_zero

  SEGMENTS IN THE MODULE
  ======================
DATA16_Z
  Relative segment, address: DATA 0446, align: 1
  Segment part 1. ROOT.
    -------------------------------------------------------------------------
RCODE
  Relative segment, address: CODE 6142 - 614F (0xe bytes), align: 1
  Segment part 2.
           ENTRY                   ADDRESS         REF BY
           =====                   =======         ======
           ?cstart_init_zero       6142            ApiHandler (lagavulin_api)
                                                   AppCallsAllowed (lagavulin_updater)
                                                   CmdIndex (lagavulin_updater)
                                                   Config0 (lagavulin_adc_hw)
                                                   ConvCompleteCallback (lagavulin_adc_hw)
                                                   CorePmicIntHandler (lagavulin_pmic_intctrl)
                                                   CorePmicIntMaskRegisters (lagavulin_pmic_intctrl)
                                                   HandlerData (timer_mux)
                                                   HighWord (lagavulin_timer)
                                                   HostPmicIntFlagRegisters (lagavulin_pmic_intctrl)
                                                   HostPmicIntMaskRegisters (lagavulin_pmic_intctrl)
                                                   InitiateResetFlags (hostctrl_common)
                                                   InitiateResetReason (hostctrl_common)
                                                   IntctrlUpdateStat (lagavulin_pmic_intctrl)
                                                   InterruptHandler (lagavulin_intvector)
                                                   InterruptHandlerActual (lagavulin_intvector)
                                                   IsSet (timer_mux)
                                                   LagavulinRegRead::LatchedUtcRead (lagavulin_api)
                                                   LagavulinRegWrite::LatchedUtcWrite (lagavulin_api)
                                                   Last32kValue (lagavulin_timer)
                                                   LastMsgQCall (msgque)
                                                   MatchValue (timer_mux)
                                                   PadHandler (lagavulin_gpio)
                                                   RawNumSamples (lagavulin_adc_hw)
                                                   RawResultAvg (lagavulin_adc_hw)
                                                   RawResultTotal (lagavulin_adc_hw)
                                                   RawSampling (lagavulin_adc_hw)
                                                   ResetInProgress (hostctrl_common)
                                                   SampleResult (lagavulin_adc_hw)
                                                   SavedEventLog (eventlog)
                                                   SeqPos (hostctrl_common)
                                                   State (hostctrl_omap4430)
                                                   SysFlags0 (lagavulin_api)
                                                   TimerHandler (timer_mux)
                                                   UpdateBytesWritten (lagavulin_updater)
                                                   UpdatePermission (lagavulin_updater)
                                                   UpdateSize (lagavulin_updater)
                                                   accessCount (lagavulin_i2c)
                                                   adrSeqCnt (lagavulin_i2c)
                                                   adrSeqMode (lagavulin_i2c)
                                                   devId (lagavulin_i2c)
                                                   module (lagavulin_i2c)
                                                   muxTimerHandler (lagavulin_timer)
                                                   newTransaction (lagavulin_api)
                                                   nextState (lagavulin_i2c)
                                                   numSet (timer_mux)
                                                   pq (timer_mux)
                                                   qCalls (msgque)
                                                   qCount (msgque)
                                                   qHead (msgque)
                                                   qTail (msgque)
                                                   rReg (lagavulin_api)
                                                   regAddr (lagavulin_i2c)

    -------------------------------------------------------------------------
  LIBRARY MODULE, NAME : ?cstart_init_copy

  SEGMENTS IN THE MODULE
  ======================
DATA16_I
  Relative segment, address: DATA 00E6, align: 1
  Segment part 1. ROOT.
    -------------------------------------------------------------------------
DATA16_ID
  Relative segment, address: CODE 63F5, align: 0
  Segment part 2. ROOT.
    -------------------------------------------------------------------------
RCODE
  Relative segment, address: CODE 6150 - 6163 (0x14 bytes), align: 1
  Segment part 3.
           ENTRY                   ADDRESS         REF BY
           =====                   =======         ======
           ?cstart_init_copy       6150            Cmd (lagavulin_updater)
                                                   ResetExtra (lagavulin_misc)
                                                   ResetStat (lagavulin_misc)
                                                   SeqDir (hostctrl_common)
                                                   UpdateResponse (lagavulin_updater)

    -------------------------------------------------------------------------
  PROGRAM MODULE, NAME : __MAIN_CALL

  SEGMENTS IN THE MODULE
  ======================
CSTACK
  Relative segment, address: DATA 1DCD, align: 0
  Segment part 1. ROOT.
    -------------------------------------------------------------------------
RCODE
  Relative segment, address: CODE 6164 - 6173 (0x10 bytes), align: 1
  Segment part 2. ROOT.
           ENTRY                   ADDRESS         REF BY
           =====                   =======         ======
           __MAIN_CALL             6164 

    -------------------------------------------------------------------------
  LIBRARY MODULE, NAME : __C_EXIT

  SEGMENTS IN THE MODULE
  ======================
RCODE
  Relative segment, address: CODE 6174 - 6175 (0x2 bytes), align: 1
  Segment part 1.
           ENTRY                   ADDRESS         REF BY
           =====                   =======         ======
           ?C_EXIT                 6174            exit (exit)
           __exit                  6174 

    -------------------------------------------------------------------------
  LIBRARY MODULE, NAME : __FUNC_STUB

  SEGMENTS IN THE MODULE
  ======================
RCODE
  Relative segment, address: CODE 6176 - 6187 (0x12 bytes), align: 1
  Segment part 1.
           ENTRY                   ADDRESS         REF BY
           =====                   =======         ======
           __util_func_stub        6176            ApiRegWrite (lagavulin_api)
                                                   ApiStopReceived (lagavulin_api)
                                                   CodeUpdateStateInit (lagavulin_updater)
                                                   ExecuteCall (msgque)
                                                   GpioHandler (lagavulin_gpio)
                                                   HostCtrlDisableSupplies (hostctrl_common)
                                                   HostCtrlInitiateReset (hostctrl_common)
                                                   I2cRomInit (lagavulin_i2c)
                                                   IsImageValid (lagavulin_updater)
                                                   LagavulinRegRead (lagavulin_api)
                                                   PmicInterruptDisable (lagavulin_pmic_intctrl)
                                                   PmicInterruptEnable (lagavulin_pmic_intctrl)
                                                   PmicInterruptHandlerReal (lagavulin_pmic_intctrl)
                                                   PmicRegisterIntHandler (lagavulin_pmic_intctrl)
                                                   ProcessUpdateCommand (lagavulin_updater)
                                                   Segment part 102 (mgLib)
                                                   Segment part 44 (mgLib)
                                                   Segment part 50 (mgLib)
                                                   Segment part 53 (mgLib)
                                                   Segment part 78 (mgLib)
                                                   Segment part 79 (mgLib)
                                                   Segment part 83 (mgLib)
                                                   SupplySequenceRunInternal (hostctrl_common)
                                                   exeModelGauge (mgLib)
                                                   i2cIsrHandler (lagavulin_i2c)
                                                   i2cMasterIsr (lagavulin_i2c)
                                                   i2cSlaveRomIsr (lagavulin_i2c)
                                                   unSetTimer (timer_mux)

    -------------------------------------------------------------------------
  LIBRARY MODULE, NAME : ?INTERRUPT0

  SEGMENTS IN THE MODULE
  ======================
INTVEC
  Relative segment, address: CODE 6040 - 6043 (0x4 bytes), align: 0
  Segment part 1. ROOT.
           ENTRY                   ADDRESS         REF BY
           =====                   =======         ======
           ?INTERRUPT0             6040            Segment part 2 (mq31_inout)

    -------------------------------------------------------------------------
  LIBRARY MODULE, NAME : ?INTERRUPT1

  SEGMENTS IN THE MODULE
  ======================
INTVEC
  Relative segment, address: CODE 6050 - 6053 (0x4 bytes), align: 0
  Segment part 1. ROOT.
           ENTRY                   ADDRESS         REF BY
           =====                   =======         ======
           ?INTERRUPT1             6050            Segment part 3 (mq31_inout)

    -------------------------------------------------------------------------
  LIBRARY MODULE, NAME : ?INTERRUPT2

  SEGMENTS IN THE MODULE
  ======================
INTVEC
  Relative segment, address: CODE 6060 - 6063 (0x4 bytes), align: 0
  Segment part 1. ROOT.
           ENTRY                   ADDRESS         REF BY
           =====                   =======         ======
           ?INTERRUPT2             6060            Segment part 4 (mq31_inout)

    -------------------------------------------------------------------------
  LIBRARY MODULE, NAME : ?INTERRUPT3

  SEGMENTS IN THE MODULE
  ======================
INTVEC
  Relative segment, address: CODE 6070 - 6073 (0x4 bytes), align: 0
  Segment part 1. ROOT.
           ENTRY                   ADDRESS         REF BY
           =====                   =======         ======
           ?INTERRUPT3             6070            Segment part 5 (mq31_inout)

    -------------------------------------------------------------------------
  LIBRARY MODULE, NAME : ?INTERRUPT4

  SEGMENTS IN THE MODULE
  ======================
INTVEC
  Relative segment, address: CODE 6080 - 6083 (0x4 bytes), align: 0
  Segment part 1. ROOT.
           ENTRY                   ADDRESS         REF BY
           =====                   =======         ======
           ?INTERRUPT4             6080            Segment part 6 (mq31_inout)

    -------------------------------------------------------------------------
  LIBRARY MODULE, NAME : ?INTERRUPT5

  SEGMENTS IN THE MODULE
  ======================
INTVEC
  Relative segment, address: CODE 6090 - 6093 (0x4 bytes), align: 0
  Segment part 1. ROOT.
           ENTRY                   ADDRESS         REF BY
           =====                   =======         ======
           ?INTERRUPT5             6090            Segment part 7 (mq31_inout)

    -------------------------------------------------------------------------
  LIBRARY MODULE, NAME : ?INTERRUPT6

  SEGMENTS IN THE MODULE
  ======================
INTVEC
  Relative segment, address: CODE 60A0 - 60A3 (0x4 bytes), align: 0
  Segment part 1. ROOT.
           ENTRY                   ADDRESS         REF BY
           =====                   =======         ======
           ?INTERRUPT6             60A0            Segment part 8 (mq31_inout)

    -------------------------------------------------------------------------
  LIBRARY MODULE, NAME : ?INTERRUPT7

  SEGMENTS IN THE MODULE
  ======================
INTVEC
  Relative segment, address: CODE 60B0 - 60B3 (0x4 bytes), align: 0
  Segment part 1. ROOT.
           ENTRY                   ADDRESS         REF BY
           =====                   =======         ======
           ?INTERRUPT7             60B0            Segment part 9 (mq31_inout)

    -------------------------------------------------------------------------
  LIBRARY MODULE, NAME : ?INTERRUPT8

  SEGMENTS IN THE MODULE
  ======================
INTVEC
  Relative segment, address: CODE 60C0 - 60C3 (0x4 bytes), align: 0
  Segment part 1. ROOT.
           ENTRY                   ADDRESS         REF BY
           =====                   =======         ======
           ?INTERRUPT8             60C0            Segment part 10 (mq31_inout)

    -------------------------------------------------------------------------
  LIBRARY MODULE, NAME : ?INTERRUPT9

  SEGMENTS IN THE MODULE
  ======================
INTVEC
  Relative segment, address: CODE 60D0 - 60D3 (0x4 bytes), align: 0
  Segment part 1. ROOT.
           ENTRY                   ADDRESS         REF BY
           =====                   =======         ======
           ?INTERRUPT9             60D0            Segment part 11 (mq31_inout)

    -------------------------------------------------------------------------
  LIBRARY MODULE, NAME : ?INTERRUPT10

  SEGMENTS IN THE MODULE
  ======================
INTVEC
  Relative segment, address: CODE 60E0 - 60E3 (0x4 bytes), align: 0
  Segment part 1. ROOT.
           ENTRY                   ADDRESS         REF BY
           =====                   =======         ======
           ?INTERRUPT10            60E0            Segment part 12 (mq31_inout)

    -------------------------------------------------------------------------
  LIBRARY MODULE, NAME : ?INTERRUPT11

  SEGMENTS IN THE MODULE
  ======================
INTVEC
  Relative segment, address: CODE 60F0 - 60F3 (0x4 bytes), align: 0
  Segment part 1. ROOT.
           ENTRY                   ADDRESS         REF BY
           =====                   =======         ======
           ?INTERRUPT11            60F0            Segment part 13 (mq31_inout)

    -------------------------------------------------------------------------
  LIBRARY MODULE, NAME : ?INTERRUPT12

  SEGMENTS IN THE MODULE
  ======================
INTVEC
  Relative segment, address: CODE 6100 - 6103 (0x4 bytes), align: 0
  Segment part 1. ROOT.
           ENTRY                   ADDRESS         REF BY
           =====                   =======         ======
           ?INTERRUPT12            6100            Segment part 14 (mq31_inout)

    -------------------------------------------------------------------------
  LIBRARY MODULE, NAME : ?INTERRUPT13

  SEGMENTS IN THE MODULE
  ======================
INTVEC
  Relative segment, address: CODE 6110 - 6113 (0x4 bytes), align: 0
  Segment part 1. ROOT.
           ENTRY                   ADDRESS         REF BY
           =====                   =======         ======
           ?INTERRUPT13            6110            Segment part 15 (mq31_inout)

    -------------------------------------------------------------------------
  LIBRARY MODULE, NAME : ?INTERRUPT14

  SEGMENTS IN THE MODULE
  ======================
INTVEC
  Relative segment, address: CODE 6120 - 6123 (0x4 bytes), align: 0
  Segment part 1. ROOT.
           ENTRY                   ADDRESS         REF BY
           =====                   =======         ======
           ?INTERRUPT14            6120            Segment part 16 (mq31_inout)

    -------------------------------------------------------------------------
  LIBRARY MODULE, NAME : ?INTERRUPT15

  SEGMENTS IN THE MODULE
  ======================
INTVEC
  Relative segment, address: CODE 6130 - 6133 (0x4 bytes), align: 0
  Segment part 1. ROOT.
           ENTRY                   ADDRESS         REF BY
           =====                   =======         ======
           ?INTERRUPT15            6130            Segment part 17 (mq31_inout)

    -------------------------------------------------------------------------
  PROGRAM MODULE, NAME : ?USR_MG_VECTOR0

  SEGMENTS IN THE MODULE
  ======================
USR_MG_VECTOR
  Relative segment, address: CODE 6044 - 6047 (0x4 bytes), align: 0
  Segment part 1. ROOT.

    -------------------------------------------------------------------------
  PROGRAM MODULE, NAME : ?USR_MG_VECTOR1

  SEGMENTS IN THE MODULE
  ======================
USR_MG_VECTOR
  Relative segment, address: CODE 6054 - 605F (0xc bytes), align: 0
  Segment part 1. ROOT.

    -------------------------------------------------------------------------
  PROGRAM MODULE, NAME : ?USR_MG_VECTOR2

  SEGMENTS IN THE MODULE
  ======================
USR_MG_VECTOR
  Relative segment, address: CODE 6064 - 606F (0xc bytes), align: 0
  Segment part 1. ROOT.

    -------------------------------------------------------------------------
  PROGRAM MODULE, NAME : ?USR_MG_VECTOR3

  SEGMENTS IN THE MODULE
  ======================
USR_MG_VECTOR
  Relative segment, address: CODE 6074 - 607F (0xc bytes), align: 0
  Segment part 1. ROOT.

    -------------------------------------------------------------------------
  PROGRAM MODULE, NAME : ?USR_MG_VECTOR4

  SEGMENTS IN THE MODULE
  ======================
USR_MG_VECTOR
  Relative segment, address: CODE 6084 - 608F (0xc bytes), align: 0
  Segment part 1. ROOT.

    -------------------------------------------------------------------------
  PROGRAM MODULE, NAME : ?USR_MG_VECTOR5

  SEGMENTS IN THE MODULE
  ======================
USR_MG_VECTOR
  Relative segment, address: CODE 6094 - 609F (0xc bytes), align: 0
  Segment part 1. ROOT.

    -------------------------------------------------------------------------
  PROGRAM MODULE, NAME : ?USR_MG_VECTOR6

  SEGMENTS IN THE MODULE
  ======================
USR_MG_VECTOR
  Relative segment, address: CODE 60A4 - 60AF (0xc bytes), align: 0
  Segment part 1. ROOT.

    -------------------------------------------------------------------------
  PROGRAM MODULE, NAME : ?USR_MG_VECTOR7

  SEGMENTS IN THE MODULE
  ======================
USR_MG_VECTOR
  Relative segment, address: CODE 60B4 - 60BF (0xc bytes), align: 0
  Segment part 1. ROOT.

    -------------------------------------------------------------------------
  PROGRAM MODULE, NAME : ?USR_MG_VECTOR8

  SEGMENTS IN THE MODULE
  ======================
USR_MG_VECTOR
  Relative segment, address: CODE 60C4 - 60CF (0xc bytes), align: 0
  Segment part 1. ROOT.

    -------------------------------------------------------------------------
  PROGRAM MODULE, NAME : ?USR_MG_VECTOR9

  SEGMENTS IN THE MODULE
  ======================
USR_MG_VECTOR
  Relative segment, address: CODE 60D4 - 60DF (0xc bytes), align: 0
  Segment part 1. ROOT.

    -------------------------------------------------------------------------
  PROGRAM MODULE, NAME : ?USR_MG_VECTOR10

  SEGMENTS IN THE MODULE
  ======================
USR_MG_VECTOR
  Relative segment, address: CODE 60E4 - 60EF (0xc bytes), align: 0
  Segment part 1. ROOT.

    -------------------------------------------------------------------------
  PROGRAM MODULE, NAME : ?USR_MG_VECTOR11

  SEGMENTS IN THE MODULE
  ======================
USR_MG_VECTOR
  Relative segment, address: CODE 60F4 - 60FF (0xc bytes), align: 0
  Segment part 1. ROOT.

    -------------------------------------------------------------------------
  PROGRAM MODULE, NAME : ?USR_MG_VECTOR12

  SEGMENTS IN THE MODULE
  ======================
USR_MG_VECTOR
  Relative segment, address: CODE 6104, align: 0
  Segment part 1. ROOT.

    -------------------------------------------------------------------------
  PROGRAM MODULE, NAME : ?USR_MG_VECTOR13

  SEGMENTS IN THE MODULE
  ======================
USR_MG_VECTOR
  Relative segment, address: CODE 6114, align: 0
  Segment part 1. ROOT.

    -------------------------------------------------------------------------
  PROGRAM MODULE, NAME : ?USR_MG_VECTOR14

  SEGMENTS IN THE MODULE
  ======================
USR_MG_VECTOR
  Relative segment, address: CODE 6124, align: 0
  Segment part 1. ROOT.

    -------------------------------------------------------------------------
  PROGRAM MODULE, NAME : ?USR_MG_VECTOR15

  SEGMENTS IN THE MODULE
  ======================
USR_MG_VECTOR
  Relative segment, address: CODE 6134, align: 0
  Segment part 1. ROOT.

    *************************************************************************

  FILE NAME : C:\workspace\perforce\lagavulin\armos\rocket\iarmaxq230\lib\mgLib.r66
  PROGRAM MODULE, NAME : mgLib

  SEGMENTS IN THE MODULE
  ======================
DATA16_AN
  Relative segment, address: DATA 0002 - 0003 (0x2 bytes), align: 0
  Segment part 1. ROOT.
           ENTRY                   ADDRESS         REF BY
           =====                   =======         ======
           mgTIMER                 0002 
    -------------------------------------------------------------------------
DATA16_AN
  Relative segment, address: DATA 0004 - 0007 (0x4 bytes), align: 0
  Segment part 2. ROOT.
           ENTRY                   ADDRESS         REF BY
           =====                   =======         ======
           curLastTime             0004 
    -------------------------------------------------------------------------
DATA16_AN
  Relative segment, address: DATA 0008 - 000B (0x4 bytes), align: 0
  Segment part 3. ROOT.
           ENTRY                   ADDRESS         REF BY
           =====                   =======         ======
           MG1LastTime             0008 
    -------------------------------------------------------------------------
DATA16_AN
  Relative segment, address: DATA 000C - 000F (0x4 bytes), align: 0
  Segment part 4. ROOT.
           ENTRY                   ADDRESS         REF BY
           =====                   =======         ======
           MG3LastTime             000C 
    -------------------------------------------------------------------------
DATA16_AN
  Relative segment, address: DATA 0010 - 0011 (0x2 bytes), align: 0
  Segment part 5. ROOT.
           ENTRY                   ADDRESS         REF BY
           =====                   =======         ======
           mgVersion               0010 
    -------------------------------------------------------------------------
DATA16_AN
  Relative segment, address: DATA 0012 - 0013 (0x2 bytes), align: 0
  Segment part 6. ROOT.
           ENTRY                   ADDRESS         REF BY
           =====                   =======         ======
           mgManName               0012 
    -------------------------------------------------------------------------
DATA16_AN
  Relative segment, address: DATA 0014 - 0015 (0x2 bytes), align: 0
  Segment part 7. ROOT.
           ENTRY                   ADDRESS         REF BY
           =====                   =======         ======
           mgREG                   0014 
    -------------------------------------------------------------------------
DATA16_AN
  Relative segment, address: DATA 008C - 008C (0x1 bytes), align: 0
  Segment part 8. ROOT.
           ENTRY                   ADDRESS         REF BY
           =====                   =======         ======
           mgVF_RCOMPseg_ub        008C 
    -------------------------------------------------------------------------
DATA16_AN
  Relative segment, address: DATA 008D - 008D (0x1 bytes), align: 0
  Segment part 9. ROOT.
           ENTRY                   ADDRESS         REF BY
           =====                   =======         ======
           mgVF_FILTER_ub          008D 
    -------------------------------------------------------------------------
DATA16_AN
  Relative segment, address: DATA 0016 - 0017 (0x2 bytes), align: 0
  Segment part 10. ROOT.
           ENTRY                   ADDRESS         REF BY
           =====                   =======         ======
           mgMixSOCo_us            0016 
    -------------------------------------------------------------------------
DATA16_AN
  Relative segment, address: DATA 0018 - 001B (0x4 bytes), align: 0
  Segment part 11. ROOT.
           ENTRY                   ADDRESS         REF BY
           =====                   =======         ======
           mgAvgVolt_ul            0018 
    -------------------------------------------------------------------------
DATA16_AN
  Relative segment, address: DATA 001C - 001F (0x4 bytes), align: 0
  Segment part 12. ROOT.
           ENTRY                   ADDRESS         REF BY
           =====                   =======         ======
           mgAvgCurr_sl            001C 
    -------------------------------------------------------------------------
DATA16_AN
  Relative segment, address: DATA 0020 - 0023 (0x4 bytes), align: 0
  Segment part 13. ROOT.
           ENTRY                   ADDRESS         REF BY
           =====                   =======         ======
           mgAvgTemp_sl            0020 
    -------------------------------------------------------------------------
DATA16_AN
  Relative segment, address: DATA 0024 - 0027 (0x4 bytes), align: 0
  Segment part 14. ROOT.
           ENTRY                   ADDRESS         REF BY
           =====                   =======         ======
           mgRepCap_ul             0024 
    -------------------------------------------------------------------------
DATA16_AN
  Relative segment, address: DATA 0028 - 002B (0x4 bytes), align: 0
  Segment part 15. ROOT.
           ENTRY                   ADDRESS         REF BY
           =====                   =======         ======
           mgMixCAP_ul             0028 
    -------------------------------------------------------------------------
DATA16_AN
  Relative segment, address: DATA 002C - 002F (0x4 bytes), align: 0
  Segment part 16. ROOT.
           ENTRY                   ADDRESS         REF BY
           =====                   =======         ======
           mgMixCAPo_ul            002C 
    -------------------------------------------------------------------------
DATA16_AN
  Relative segment, address: DATA 0030 - 0033 (0x4 bytes), align: 0
  Segment part 17. ROOT.
           ENTRY                   ADDRESS         REF BY
           =====                   =======         ======
           mgVF_RemCap_ul          0030 
    -------------------------------------------------------------------------
DATA16_AN
  Relative segment, address: DATA 0034 - 0037 (0x4 bytes), align: 0
  Segment part 18. ROOT.
           ENTRY                   ADDRESS         REF BY
           =====                   =======         ======
           mgVF_OCV_ul             0034 
    -------------------------------------------------------------------------
DATA16_AN
  Relative segment, address: DATA 0038 - 003B (0x4 bytes), align: 0
  Segment part 19. ROOT.
           ENTRY                   ADDRESS         REF BY
           =====                   =======         ======
           mgQ_sl                  0038 
    -------------------------------------------------------------------------
DATA16_AN
  Relative segment, address: DATA 003C - 003F (0x4 bytes), align: 0
  Segment part 20. ROOT.
           ENTRY                   ADDRESS         REF BY
           =====                   =======         ======
           mgQo_sl                 003C 
    -------------------------------------------------------------------------
DATA16_AN
  Relative segment, address: DATA 0040 - 0043 (0x4 bytes), align: 0
  Segment part 21. ROOT.
           ENTRY                   ADDRESS         REF BY
           =====                   =======         ======
           mgQp_sl                 0040 
    -------------------------------------------------------------------------
DATA16_AN
  Relative segment, address: DATA 0044 - 004B (0x8 bytes), align: 0
  Segment part 22. ROOT.
           ENTRY                   ADDRESS         REF BY
           =====                   =======         ======
           mgQR_LUT                0044 
    -------------------------------------------------------------------------
DATA16_AN
  Relative segment, address: DATA 004C - 008B (0x40 bytes), align: 0
  Segment part 23. ROOT.
           ENTRY                   ADDRESS         REF BY
           =====                   =======         ======
           mgSOC_LUT               004C 
    -------------------------------------------------------------------------
DATA16_C
  Relative segment, address: CODE 62A8 - 62C7 (0x20 bytes), align: 1
  Segment part 25.            Intra module refs:   initModelGauge
           ENTRY                   ADDRESS         REF BY
           =====                   =======         ======
           eepOCV_LUT              62A8 
    -------------------------------------------------------------------------
DATA16_C
  Relative segment, address: CODE 62C8 - 62E7 (0x20 bytes), align: 1
  Segment part 26.            Intra module refs:   initModelGauge
           ENTRY                   ADDRESS         REF BY
           =====                   =======         ======
           eepCAP_LUT              62C8 
    -------------------------------------------------------------------------
DATA16_C
  Relative segment, address: CODE 62E8 - 6307 (0x20 bytes), align: 1
  Segment part 27.            Intra module refs:   initModelGauge
           ENTRY                   ADDRESS         REF BY
           =====                   =======         ======
           eepSEG_LUT              62E8 
    -------------------------------------------------------------------------
DATA16_C
  Relative segment, address: CODE 6308 - 630F (0x8 bytes), align: 1
  Segment part 28.            Intra module refs:   initModelGauge
           ENTRY                   ADDRESS         REF BY
           =====                   =======         ======
           eepQR_LUT               6308 
    -------------------------------------------------------------------------
DATA16_N
  Relative segment, address: DATA 0484 - 0485 (0x2 bytes), align: 1
  Segment part 29. ROOT.      Intra module refs:   exeModelGauge
                                                   usr_doTakedQ
    -------------------------------------------------------------------------
DATA16_N
  Relative segment, address: DATA 0486 - 0489 (0x4 bytes), align: 1
  Segment part 30. ROOT.      Intra module refs:   exeModelGauge
                                                   usr_doTakedQ
    -------------------------------------------------------------------------
DATA16_N
  Relative segment, address: DATA 048A - 048D (0x4 bytes), align: 1
  Segment part 31. ROOT.      Intra module refs:   exeModelGauge
                                                   usr_doTakedQ
    -------------------------------------------------------------------------
<CODE,LCODE> 1 (was LCODE)
  Relative segment, address: CODE CA44 - CA47 (0x4 bytes), align: 1
  Segment part 32. ROOT.
           ENTRY                   ADDRESS         REF BY
           =====                   =======         ======
           getMGLVersion           CA44 
               CSTACK = 00000000 ( 00000002 )
    -------------------------------------------------------------------------
<CODE,LCODE> 1 (was LCODE)
  Relative segment, address: CODE A28C - A5A5 (0x31a bytes), align: 1
  Segment part 33. ROOT.
           ENTRY                   ADDRESS         REF BY
           =====                   =======         ======
           initModelGauge          A28C 
               calls direct
               CSTACK = 00000000 ( 00000002 )
    -------------------------------------------------------------------------
<CODE,LCODE> 1 (was LCODE)
  Relative segment, address: CODE C932 - C943 (0x12 bytes), align: 1
  Segment part 34.            Intra module refs:   initModelGauge
    -------------------------------------------------------------------------
<CODE,LCODE> 1 (was LCODE)
  Relative segment, address: CODE C9FC - CA05 (0xa bytes), align: 1
  Segment part 35.            Intra module refs:   initModelGauge
    -------------------------------------------------------------------------
<CODE,LCODE> 1 (was LCODE)
  Relative segment, address: CODE C8E2 - C8F7 (0x16 bytes), align: 1
  Segment part 36.            Intra module refs:   initModelGauge
    -------------------------------------------------------------------------
<CODE,LCODE> 1 (was LCODE)
  Relative segment, address: CODE CA28 - CA2D (0x6 bytes), align: 1
  Segment part 37.            Intra module refs:   initModelGauge
    -------------------------------------------------------------------------
<CODE,LCODE> 1 (was LCODE)
  Relative segment, address: CODE C9DE - C9E7 (0xa bytes), align: 1
  Segment part 38.            Intra module refs:   Segment part 37
                                                   Segment part 45
                                                   Segment part 46
                                                   Segment part 56
    -------------------------------------------------------------------------
<CODE,LCODE> 1 (was LCODE)
  Relative segment, address: CODE CA34 - CA39 (0x6 bytes), align: 1
  Segment part 39.            Intra module refs:   initModelGauge
    -------------------------------------------------------------------------
<CODE,LCODE> 1 (was LCODE)
  Relative segment, address: CODE C9BE - C9C9 (0xc bytes), align: 1
  Segment part 40.            Intra module refs:   Segment part 39
                                                   Segment part 57
    -------------------------------------------------------------------------
<CODE,LCODE> 1 (was LCODE)
  Relative segment, address: CODE C8CA - C8E1 (0x18 bytes), align: 1
  Segment part 41.            Intra module refs:   initModelGauge
    -------------------------------------------------------------------------
<CODE,LCODE> 1 (was LCODE)
  Relative segment, address: CODE C956 - C967 (0x12 bytes), align: 1
  Segment part 42.            Intra module refs:   exeModelGauge
                                                   initModelGauge
    -------------------------------------------------------------------------
<CODE,LCODE> 1 (was LCODE)
  Relative segment, address: CODE CA18 - CA1F (0x8 bytes), align: 1
  Segment part 43.            Intra module refs:   Segment part 41
                                                   Segment part 42
                                                   Segment part 45
                                                   Segment part 55
    -------------------------------------------------------------------------
<CODE,LCODE> 1 (was LCODE)
  Relative segment, address: CODE C9D4 - C9DD (0xa bytes), align: 1
  Segment part 44.            Intra module refs:   Segment part 38
                                                   Segment part 40
                                                   Segment part 43
    -------------------------------------------------------------------------
<CODE,LCODE> 1 (was LCODE)
  Relative segment, address: CODE C896 - C8AF (0x1a bytes), align: 1
  Segment part 45.            Intra module refs:   initModelGauge
    -------------------------------------------------------------------------
<CODE,LCODE> 1 (was LCODE)
  Relative segment, address: CODE C944 - C955 (0x12 bytes), align: 1
  Segment part 46.            Intra module refs:   initModelGauge
    -------------------------------------------------------------------------
<CODE,LCODE> 1 (was LCODE)
  Relative segment, address: CODE CA3A - CA3F (0x6 bytes), align: 1
  Segment part 49.            Intra module refs:   exeModelGauge
                                                   initModelGauge
    -------------------------------------------------------------------------
<CODE,LCODE> 1 (was LCODE)
  Relative segment, address: CODE C90C - C91F (0x14 bytes), align: 1
  Segment part 50.            Intra module refs:   Segment part 49
                                                   Segment part 51
                                                   Segment part 52
                                                   Segment part 54
                                                   exeModelGauge
    -------------------------------------------------------------------------
<CODE,LCODE> 1 (was LCODE)
  Relative segment, address: CODE CA2E - CA33 (0x6 bytes), align: 1
  Segment part 55.            Intra module refs:   exeModelGauge
                                                   initModelGauge
    -------------------------------------------------------------------------
<CODE,LCODE> 1 (was LCODE)
  Relative segment, address: CODE CA06 - CA0F (0xa bytes), align: 1
  Segment part 56.            Intra module refs:   exeModelGauge
                                                   initModelGauge
    -------------------------------------------------------------------------
<CODE,LCODE> 1 (was LCODE)
  Relative segment, address: CODE C968 - C977 (0x10 bytes), align: 1
  Segment part 57.            Intra module refs:   exeModelGauge
                                                   initModelGauge
    -------------------------------------------------------------------------
<CODE,LCODE> 1 (was LCODE)
  Relative segment, address: CODE AEB0 - B05B (0x1ac bytes), align: 1
  Segment part 47. ROOT.
           ENTRY                   ADDRESS         REF BY
           =====                   =======         ======
           exeModelGauge           AEB0 
               calls direct
               CSTACK = 00000000 ( 00000016 )
    -------------------------------------------------------------------------
<CODE,LCODE> 1 (was LCODE)
  Relative segment, address: CODE C9B0 - C9BD (0xe bytes), align: 1
  Segment part 48.            Intra module refs:   exeModelGauge
    -------------------------------------------------------------------------
<CODE,LCODE> 1 (was LCODE)
  Relative segment, address: CODE C9CA - C9D3 (0xa bytes), align: 1
  Segment part 51.            Intra module refs:   exeModelGauge
    -------------------------------------------------------------------------
<CODE,LCODE> 1 (was LCODE)
  Relative segment, address: CODE C87C - C895 (0x1a bytes), align: 1
  Segment part 52.            Intra module refs:   exeModelGauge
    -------------------------------------------------------------------------
<CODE,LCODE> 1 (was LCODE)
  Relative segment, address: CODE C9E8 - C9F1 (0xa bytes), align: 1
  Segment part 53.            Intra module refs:   Segment part 52
                                                   exeModelGauge
    -------------------------------------------------------------------------
<CODE,LCODE> 1 (was LCODE)
  Relative segment, address: CODE C9F2 - C9FB (0xa bytes), align: 1
  Segment part 54.            Intra module refs:   exeModelGauge
    -------------------------------------------------------------------------
ULDR_SECTOR
  Relative segment, address: CODE 4088 - 4089 (0x2 bytes), align: 1
  Segment part 58.
           ENTRY                   ADDRESS         REF BY
           =====                   =======         ======
           usr_regModelGauge       4088            Segment part 1 (?USR_MG_VECTOR0)
               CSTACK = 00000000 ( 00000002 )
    -------------------------------------------------------------------------
ULDR_SECTOR
  Relative segment, address: CODE 408A - 408B (0x2 bytes), align: 1
  Segment part 59.
           ENTRY                   ADDRESS         REF BY
           =====                   =======         ======
           usr_loadRegisters       408A            Segment part 1 (?USR_MG_VECTOR1)
               CSTACK = 00000000 ( 00000002 )
    -------------------------------------------------------------------------
ULDR_SECTOR
  Relative segment, address: CODE 408C - 408D (0x2 bytes), align: 1
  Segment part 60.
           ENTRY                   ADDRESS         REF BY
           =====                   =======         ======
           usr_storeRegisters      408C            Segment part 1 (?USR_MG_VECTOR1)
               CSTACK = 00000000 ( 00000002 )
    -------------------------------------------------------------------------
ULDR_SECTOR
  Relative segment, address: CODE 408E - 408F (0x2 bytes), align: 1
  Segment part 61.
           ENTRY                   ADDRESS         REF BY
           =====                   =======         ======
           usr_mgGetVFOCV          408E            Segment part 1 (?USR_MG_VECTOR1)
               CSTACK = 00000000 ( 00000002 )
    -------------------------------------------------------------------------
ULDR_SECTOR
  Relative segment, address: CODE 4090 - 4095 (0x6 bytes), align: 1
  Segment part 62.
           ENTRY                   ADDRESS         REF BY
           =====                   =======         ======
           usr_mgGetVFSOC          4090            Segment part 1 (?USR_MG_VECTOR2)
               calls direct
               CSTACK = 00000000 ( 00000002 )
    -------------------------------------------------------------------------
ULDR_SECTOR
  Relative segment, address: CODE 4096 - 409B (0x6 bytes), align: 1
  Segment part 63.
           ENTRY                   ADDRESS         REF BY
           =====                   =======         ======
           usr_mgGetMixOCV         4096            Segment part 1 (?USR_MG_VECTOR2)
               calls direct
               CSTACK = 00000000 ( 00000002 )
    -------------------------------------------------------------------------
ULDR_SECTOR
  Relative segment, address: CODE 409C - 409D (0x2 bytes), align: 1
  Segment part 64.
           ENTRY                   ADDRESS         REF BY
           =====                   =======         ======
           usr_doModelGauge        409C            Segment part 1 (?USR_MG_VECTOR2)
               CSTACK = 00000000 ( 00000002 )
    -------------------------------------------------------------------------
ULDR_SECTOR
  Relative segment, address: CODE 409E - 40A3 (0x6 bytes), align: 1
  Segment part 65.
           ENTRY                   ADDRESS         REF BY
           =====                   =======         ======
           usr_doMG_Barcelona      409E            Segment part 1 (?USR_MG_VECTOR3)
               calls direct
               CSTACK = 00000000 ( 00000002 )
    -------------------------------------------------------------------------
ULDR_SECTOR
  Relative segment, address: CODE 40A4 - 40A9 (0x6 bytes), align: 1
  Segment part 66.
           ENTRY                   ADDRESS         REF BY
           =====                   =======         ======
           usr_doMG_Manchester     40A4            Segment part 1 (?USR_MG_VECTOR3)
               calls direct
               CSTACK = 00000000 ( 00000002 )
    -------------------------------------------------------------------------
ULDR_SECTOR
  Relative segment, address: CODE 40AA - 40AF (0x6 bytes), align: 1
  Segment part 67.
           ENTRY                   ADDRESS         REF BY
           =====                   =======         ======
           usr_doMG_BocaJ          40AA            Segment part 1 (?USR_MG_VECTOR3)
               calls direct
               CSTACK = 00000000 ( 00000002 )
    -------------------------------------------------------------------------
ULDR_SECTOR
  Relative segment, address: CODE 40B0 - 40B5 (0x6 bytes), align: 1
  Segment part 68.
           ENTRY                   ADDRESS         REF BY
           =====                   =======         ======
           usr_doMG_Santos         40B0            Segment part 1 (?USR_MG_VECTOR4)
               calls direct
               CSTACK = 00000000 ( 00000002 )
    -------------------------------------------------------------------------
ULDR_SECTOR
  Relative segment, address: CODE 40B6 - 40B7 (0x2 bytes), align: 1
  Segment part 69.
           ENTRY                   ADDRESS         REF BY
           =====                   =======         ======
           usr_doFirstVolt         40B6            Segment part 1 (?USR_MG_VECTOR4)
               CSTACK = 00000000 ( 00000002 )
    -------------------------------------------------------------------------
ULDR_SECTOR
  Relative segment, address: CODE 40B8 - 40BD (0x6 bytes), align: 1
  Segment part 70.
           ENTRY                   ADDRESS         REF BY
           =====                   =======         ======
           usr_doInsertion         40B8            Segment part 1 (?USR_MG_VECTOR4)
               calls direct
               CSTACK = 00000000 ( 00000002 )
    -------------------------------------------------------------------------
ULDR_SECTOR
  Relative segment, address: CODE 40BE - 4105 (0x48 bytes), align: 1
  Segment part 71.
           ENTRY                   ADDRESS         REF BY
           =====                   =======         ======
           usr_doTakedQ            40BE            Segment part 1 (?USR_MG_VECTOR5)
               CSTACK = 00000000 ( 00000002 )
    -------------------------------------------------------------------------
ULDR_SECTOR
  Relative segment, address: CODE 4106 - 410B (0x6 bytes), align: 1
  Segment part 81.            Intra module refs:   usr_doFullDet
                                                   usr_doReport
                                                   usr_doTakedQ
    -------------------------------------------------------------------------
ULDR_SECTOR
  Relative segment, address: CODE 410C - 4111 (0x6 bytes), align: 1
  Segment part 82.            Intra module refs:   Segment part 108
                                                   Segment part 81
                                                   Segment part 85
    -------------------------------------------------------------------------
ULDR_SECTOR
  Relative segment, address: CODE 4112 - 4127 (0x16 bytes), align: 1
  Segment part 83.            Intra module refs:   Segment part 104
                                                   Segment part 82
    -------------------------------------------------------------------------
ULDR_SECTOR
  Relative segment, address: CODE 4128 - 412D (0x6 bytes), align: 1
  Segment part 72.
           ENTRY                   ADDRESS         REF BY
           =====                   =======         ======
           usr_doMixing            4128            Segment part 1 (?USR_MG_VECTOR5)
               calls direct
               CSTACK = 00000000 ( 00000002 )
    -------------------------------------------------------------------------
ULDR_SECTOR
  Relative segment, address: CODE 412E - 4133 (0x6 bytes), align: 1
  Segment part 73.
           ENTRY                   ADDRESS         REF BY
           =====                   =======         ======
           usr_doACC               412E            Segment part 1 (?USR_MG_VECTOR5)
               calls direct
               CSTACK = 00000000 ( 00000002 )
    -------------------------------------------------------------------------
ULDR_SECTOR
  Relative segment, address: CODE 4134 - 42E9 (0x1b6 bytes), align: 1
  Segment part 74.
           ENTRY                   ADDRESS         REF BY
           =====                   =======         ======
           usr_doReport            4134            Segment part 1 (?USR_MG_VECTOR6)
               calls direct
               CSTACK = 00000000 ( 00000006 )
    -------------------------------------------------------------------------
ULDR_SECTOR
  Relative segment, address: CODE 42EA - 42FB (0x12 bytes), align: 1
  Segment part 75.            Intra module refs:   usr_doReport
    -------------------------------------------------------------------------
ULDR_SECTOR
  Relative segment, address: CODE 42FC - 4307 (0xc bytes), align: 1
  Segment part 76.            Intra module refs:   usr_doReport
    -------------------------------------------------------------------------
ULDR_SECTOR
  Relative segment, address: CODE 4308 - 4315 (0xe bytes), align: 1
  Segment part 77.            Intra module refs:   usr_doReport
    -------------------------------------------------------------------------
ULDR_SECTOR
  Relative segment, address: CODE 4316 - 431F (0xa bytes), align: 1
  Segment part 78.            Intra module refs:   usr_doReport
    -------------------------------------------------------------------------
ULDR_SECTOR
  Relative segment, address: CODE 4320 - 432B (0xc bytes), align: 1
  Segment part 79.            Intra module refs:   usr_doReport
    -------------------------------------------------------------------------
ULDR_SECTOR
  Relative segment, address: CODE 432C - 4339 (0xe bytes), align: 1
  Segment part 80.            Intra module refs:   usr_doReport
    -------------------------------------------------------------------------
ULDR_SECTOR
  Relative segment, address: CODE 433A - 4343 (0xa bytes), align: 1
  Segment part 84.            Intra module refs:   usr_doReport
    -------------------------------------------------------------------------
ULDR_SECTOR
  Relative segment, address: CODE 4344 - 4359 (0x16 bytes), align: 1
  Segment part 85.            Intra module refs:   usr_doReport
    -------------------------------------------------------------------------
ULDR_SECTOR
  Relative segment, address: CODE 435A - 4365 (0xc bytes), align: 1
  Segment part 92.            Intra module refs:   Segment part 76
                                                   Segment part 91
    -------------------------------------------------------------------------
ULDR_SECTOR
  Relative segment, address: CODE 4366 - 436B (0x6 bytes), align: 1
  Segment part 94.            Intra module refs:   usr_doFullDet
                                                   usr_doReport
    -------------------------------------------------------------------------
ULDR_SECTOR
  Relative segment, address: CODE 436C - 4379 (0xe bytes), align: 1
  Segment part 95.            Intra module refs:   Segment part 80
                                                   Segment part 94
    -------------------------------------------------------------------------
ULDR_SECTOR
  Relative segment, address: CODE 437A - 4381 (0x8 bytes), align: 1
  Segment part 96.            Intra module refs:   usr_doFullDet
                                                   usr_doReport
    -------------------------------------------------------------------------
ULDR_SECTOR
  Relative segment, address: CODE 4382 - 4393 (0x12 bytes), align: 1
  Segment part 97.            Intra module refs:   usr_doFullDet
                                                   usr_doReport
    -------------------------------------------------------------------------
ULDR_SECTOR
  Relative segment, address: CODE 4394 - 439B (0x8 bytes), align: 1
  Segment part 98.            Intra module refs:   usr_doFullDet
                                                   usr_doReport
    -------------------------------------------------------------------------
ULDR_SECTOR
  Relative segment, address: CODE 439C - 43A9 (0xe bytes), align: 1
  Segment part 99.            Intra module refs:   Segment part 100
                                                   Segment part 105
                                                   Segment part 98
    -------------------------------------------------------------------------
ULDR_SECTOR
  Relative segment, address: CODE 43AA - 43B5 (0xc bytes), align: 1
  Segment part 100.           Intra module refs:   usr_doFullDet
                                                   usr_doReport
    -------------------------------------------------------------------------
ULDR_SECTOR
  Relative segment, address: CODE 43B6 - 43BD (0x8 bytes), align: 1
  Segment part 101.           Intra module refs:   Segment part 100
                                                   Segment part 108
                                                   Segment part 80
                                                   Segment part 90
                                                   Segment part 96
                                                   Segment part 97
    -------------------------------------------------------------------------
ULDR_SECTOR
  Relative segment, address: CODE 43BE - 43C7 (0xa bytes), align: 1
  Segment part 102.           Intra module refs:   Segment part 101
                                                   Segment part 107
                                                   Segment part 92
    -------------------------------------------------------------------------
ULDR_SECTOR
  Relative segment, address: CODE 43C8 - 43CF (0x8 bytes), align: 1
  Segment part 103.           Intra module refs:   usr_doFullDet
                                                   usr_doReport
    -------------------------------------------------------------------------
ULDR_SECTOR
  Relative segment, address: CODE 43D0 - 43DD (0xe bytes), align: 1
  Segment part 104.           Intra module refs:   Segment part 103
                                                   Segment part 84
    -------------------------------------------------------------------------
ULDR_SECTOR
  Relative segment, address: CODE 43DE - 43E5 (0x8 bytes), align: 1
  Segment part 107.           Intra module refs:   Segment part 106
                                                   Segment part 95
                                                   Segment part 99
    -------------------------------------------------------------------------
ULDR_SECTOR
  Relative segment, address: CODE 43E6 - 43EB (0x6 bytes), align: 1
  Segment part 86.
           ENTRY                   ADDRESS         REF BY
           =====                   =======         ======
           usr_doTempCo            43E6            Segment part 1 (?USR_MG_VECTOR6)
               calls direct
               CSTACK = 00000000 ( 00000002 )
    -------------------------------------------------------------------------
ULDR_SECTOR
  Relative segment, address: CODE 43EC - 43F1 (0x6 bytes), align: 1
  Segment part 87.
           ENTRY                   ADDRESS         REF BY
           =====                   =======         ======
           usr_doEmpty             43EC            Segment part 1 (?USR_MG_VECTOR6)
               calls direct
               CSTACK = 00000000 ( 00000002 )
    -------------------------------------------------------------------------
ULDR_SECTOR
  Relative segment, address: CODE 43F2 - 43F7 (0x6 bytes), align: 1
  Segment part 88.
           ENTRY                   ADDRESS         REF BY
           =====                   =======         ======
           usr_doMisc              43F2            Segment part 1 (?USR_MG_VECTOR7)
               calls direct
               CSTACK = 00000000 ( 00000002 )
    -------------------------------------------------------------------------
ULDR_SECTOR
  Relative segment, address: CODE 43F8 - 452F (0x138 bytes), align: 1
  Segment part 89.
           ENTRY                   ADDRESS         REF BY
           =====                   =======         ======
           usr_doFullDet           43F8            Segment part 1 (?USR_MG_VECTOR7)
               calls direct
               CSTACK = 00000000 ( 00000004 )
    -------------------------------------------------------------------------
ULDR_SECTOR
  Relative segment, address: CODE 4530 - 4537 (0x8 bytes), align: 1
  Segment part 90.            Intra module refs:   usr_doFullDet
    -------------------------------------------------------------------------
ULDR_SECTOR
  Relative segment, address: CODE 4538 - 453D (0x6 bytes), align: 1
  Segment part 91.            Intra module refs:   usr_doFullDet
    -------------------------------------------------------------------------
ULDR_SECTOR
  Relative segment, address: CODE 453E - 4545 (0x8 bytes), align: 1
  Segment part 93.            Intra module refs:   usr_doFullDet
    -------------------------------------------------------------------------
ULDR_SECTOR
  Relative segment, address: CODE 4546 - 4553 (0xe bytes), align: 1
  Segment part 105.           Intra module refs:   usr_doFullDet
    -------------------------------------------------------------------------
ULDR_SECTOR
  Relative segment, address: CODE 4554 - 455B (0x8 bytes), align: 1
  Segment part 106.           Intra module refs:   Segment part 105
                                                   Segment part 108
                                                   Segment part 93
    -------------------------------------------------------------------------
ULDR_SECTOR
  Relative segment, address: CODE 455C - 458B (0x30 bytes), align: 1
  Segment part 108.           Intra module refs:   usr_doFullDet
    -------------------------------------------------------------------------
ULDR_SECTOR
  Relative segment, address: CODE 458C - 4591 (0x6 bytes), align: 1
  Segment part 109.
           ENTRY                   ADDRESS         REF BY
           =====                   =======         ======
           usr_doRelax             458C            Segment part 1 (?USR_MG_VECTOR7)
               calls direct
               CSTACK = 00000000 ( 00000002 )
    -------------------------------------------------------------------------
ULDR_SECTOR
  Relative segment, address: CODE 4592 - 4597 (0x6 bytes), align: 1
  Segment part 110.
           ENTRY                   ADDRESS         REF BY
           =====                   =======         ======
           usr_doLrnRCOMP          4592            Segment part 1 (?USR_MG_VECTOR8)
               calls direct
               CSTACK = 00000000 ( 00000002 )
    -------------------------------------------------------------------------
ULDR_SECTOR
  Relative segment, address: CODE 4598 - 459D (0x6 bytes), align: 1
  Segment part 111.
           ENTRY                   ADDRESS         REF BY
           =====                   =======         ======
           usr_doLrnFull           4598            Segment part 1 (?USR_MG_VECTOR8)
               calls direct
               CSTACK = 00000000 ( 00000002 )
    -------------------------------------------------------------------------
ULDR_SECTOR
  Relative segment, address: CODE 459E - 45A3 (0x6 bytes), align: 1
  Segment part 112.
           ENTRY                   ADDRESS         REF BY
           =====                   =======         ======
           usr_doRslow             459E            Segment part 1 (?USR_MG_VECTOR8)
               calls direct
               CSTACK = 00000000 ( 00000002 )
    -------------------------------------------------------------------------
ULDR_SECTOR
  Relative segment, address: CODE 45A4 - 45A9 (0x6 bytes), align: 1
  Segment part 113.
           ENTRY                   ADDRESS         REF BY
           =====                   =======         ======
           usr_addWORD             45A4            Segment part 1 (?USR_MG_VECTOR9)
               calls direct
               CSTACK = 00000000 ( 00000002 )
    -------------------------------------------------------------------------
ULDR_SECTOR
  Relative segment, address: CODE 45AA - 45AF (0x6 bytes), align: 1
  Segment part 114.
           ENTRY                   ADDRESS         REF BY
           =====                   =======         ======
           usr_addULNG             45AA            Segment part 1 (?USR_MG_VECTOR9)
               calls direct
               CSTACK = 00000000 ( 00000002 )
    -------------------------------------------------------------------------
ULDR_SECTOR
  Relative segment, address: CODE 45B0 - 45B5 (0x6 bytes), align: 1
  Segment part 115.
           ENTRY                   ADDRESS         REF BY
           =====                   =======         ======
           usr_addL2UL             45B0            Segment part 1 (?USR_MG_VECTOR9)
               calls direct
               CSTACK = 00000000 ( 00000002 )
    -------------------------------------------------------------------------
ULDR_SECTOR
  Relative segment, address: CODE 45B6 - 45BB (0x6 bytes), align: 1
  Segment part 116.
           ENTRY                   ADDRESS         REF BY
           =====                   =======         ======
           usr_compFCTC            45B6            Segment part 1 (?USR_MG_VECTOR10)
               calls direct
               CSTACK = 00000000 ( 00000002 )
    -------------------------------------------------------------------------
ULDR_SECTOR
  Relative segment, address: CODE 45BC - 45C1 (0x6 bytes), align: 1
  Segment part 117.
           ENTRY                   ADDRESS         REF BY
           =====                   =======         ======
           usr_getQresTable        45BC            Segment part 1 (?USR_MG_VECTOR10)
               calls direct
               CSTACK = 00000000 ( 00000002 )
    -------------------------------------------------------------------------
ULDR_SECTOR
  Relative segment, address: CODE 45C2 - 45C7 (0x6 bytes), align: 1
  Segment part 118.
           ENTRY                   ADDRESS         REF BY
           =====                   =======         ======
           usr_chgQresTable        45C2            Segment part 1 (?USR_MG_VECTOR10)
               calls direct
               CSTACK = 00000000 ( 00000002 )
    -------------------------------------------------------------------------
ULDR_SECTOR
  Relative segment, address: CODE 45C8 - 45CD (0x6 bytes), align: 1
  Segment part 119.
           ENTRY                   ADDRESS         REF BY
           =====                   =======         ======
           usr_sizeofBit           45C8            Segment part 1 (?USR_MG_VECTOR11)
               calls direct
               CSTACK = 00000000 ( 00000002 )
    -------------------------------------------------------------------------
ULDR_SECTOR
  Relative segment, address: CODE 45CE - 45D3 (0x6 bytes), align: 1
  Segment part 120.
           ENTRY                   ADDRESS         REF BY
           =====                   =======         ======
           usr_mulDivW             45CE            Segment part 1 (?USR_MG_VECTOR11)
               calls direct
               CSTACK = 00000000 ( 00000002 )
    -------------------------------------------------------------------------
ULDR_SECTOR
  Relative segment, address: CODE 45D4 - 45D9 (0x6 bytes), align: 1
  Segment part 121.
           ENTRY                   ADDRESS         REF BY
           =====                   =======         ======
           usr_mulDivL             45D4            Segment part 1 (?USR_MG_VECTOR11)
               calls direct
               CSTACK = 00000000 ( 00000002 )

    *************************************************************************

  FILE NAME : C:\workspace\perforce\lagavulin\armos\rocket\iarmaxq230\lib\clib\clmaxq68mllc.r66
  LIBRARY MODULE, NAME : fcn_epilogue

  SEGMENTS IN THE MODULE
  ======================
<CODE,LCODE> 1 (was CODE)
  Relative segment, address: CODE 6522 - 6525 (0x4 bytes), align: 1
  Segment part 17.
           ENTRY                   ADDRESS         REF BY
           =====                   =======         ======
           ?epilogue_15            6522            PadConfig (lagavulin_gpio)
                                                   exeModelGauge (mgLib)
    -------------------------------------------------------------------------
<CODE,LCODE> 1 (was CODE)
  Relative segment, address: CODE 6526 - 6529 (0x4 bytes), align: 1
  Segment part 18.            Intra module refs:   ?epilogue_15
           ENTRY                   ADDRESS         REF BY
           =====                   =======         ======
           ?epilogue_14            6526            SetTimer (timer_mux)
    -------------------------------------------------------------------------
<CODE,LCODE> 1 (was CODE)
  Relative segment, address: CODE 652A - 652D (0x4 bytes), align: 1
  Segment part 19.            Intra module refs:   ?epilogue_14
           ENTRY                   ADDRESS         REF BY
           =====                   =======         ======
           ?epilogue_13            652A 
    -------------------------------------------------------------------------
<CODE,LCODE> 1 (was CODE)
  Relative segment, address: CODE 652E - 6531 (0x4 bytes), align: 1
  Segment part 20.            Intra module refs:   ?epilogue_13
           ENTRY                   ADDRESS         REF BY
           =====                   =======         ======
           ?epilogue_12            652E            PmicInterruptHandlerReal (lagavulin_pmic_intctrl)
    -------------------------------------------------------------------------
<CODE,LCODE> 1 (was CODE)
  Relative segment, address: CODE 6532 - 6535 (0x4 bytes), align: 1
  Segment part 21.            Intra module refs:   ?epilogue_12
           ENTRY                   ADDRESS         REF BY
           =====                   =======         ======
           ?epilogue_11            6532            GpioHandler (lagavulin_gpio)
                                                   HwDelay (delay)
                                                   StopTimer (timer_mux)
                                                   unSetTimer (timer_mux)
    -------------------------------------------------------------------------
<CODE,LCODE> 1 (was CODE)
  Relative segment, address: CODE 6536 - 6539 (0x4 bytes), align: 1
  Segment part 22.            Intra module refs:   ?epilogue_11
           ENTRY                   ADDRESS         REF BY
           =====                   =======         ======
           ?epilogue_10            6536            AdcConvertHw (lagavulin_adc_hw)
                                                   HostCtrlPmicRegisterReset (hostctrl_common)
                                                   PmicRead (lagavulin_spi)
                                                   PmicWrite (lagavulin_spi)
                                                   QueueCallInt (msgque)
                                                   expireMuxTimers (timer_mux)
    -------------------------------------------------------------------------
<CODE,LCODE> 1 (was CODE)
  Relative segment, address: CODE 653A - 653D (0x4 bytes), align: 1
  Segment part 23.            Intra module refs:   ?epilogue_10
           ENTRY                   ADDRESS         REF BY
           =====                   =======         ======
           ?epilogue_9             653A            ApiInterruptHost (lagavulin_api)
                                                   ExecuteCall (msgque)
                                                   GenerateCrc16 (lagavulin_crc)
                                                   GetHWTimerCountDword (lagavulin_timer)
                                                   HostCtrlDisableSupplies (hostctrl_common)
                                                   HostCtrlInitiateReset (hostctrl_common)
                                                   PadRead (lagavulin_gpio)
                                                   PmicRegisterIntHandler (lagavulin_pmic_intctrl)
                                                   ProcessUpdateCommand (lagavulin_updater)
                                                   SetHWTimer (lagavulin_timer)
                                                   WriteBootloaderMsg (lagavulin_updater)
                                                   i2cMasterIsr (lagavulin_i2c)
                                                   usr_doReport (mgLib)
    -------------------------------------------------------------------------
<CODE,LCODE> 1 (was CODE)
  Relative segment, address: CODE 653E - 6547 (0xa bytes), align: 1
  Segment part 24.            Intra module refs:   ?epilogue_9
           ENTRY                   ADDRESS         REF BY
           =====                   =======         ======
           ?epilogue_8             653E            ApiClearInterruptHost (lagavulin_api)
                                                   ApiRegisterHandlers (lagavulin_api)
                                                   ConfigureFll (lagavulin_slowclock)
                                                   HostCtrlGpioReset (hostctrl_common)
                                                   HostCtrlStateInit (hostctrl_omap4430)
                                                   HostCtrlTimerExpiry (hostctrl_omap4430)
                                                   I2cInit (lagavulin_i2c)
                                                   I2cRomInit (lagavulin_i2c)
                                                   IsImageValid (lagavulin_updater)
                                                   LagavulinRegRead (lagavulin_api)
                                                   PadRegisterIntHandler (lagavulin_gpio)
                                                   PmicFaultHandler (hostctrl_omap4430)
                                                   PmicIntCtrlHostUninit (lagavulin_pmic_intctrl)
                                                   PmicIntctrlRegRead (lagavulin_pmic_intctrl)
                                                   PmicInterruptDisable (lagavulin_pmic_intctrl)
                                                   PmicInterruptEnable (lagavulin_pmic_intctrl)
                                                   PowerFaultIsr (lagavulin_misc)
                                                   PreEnterDeepSleep (lagavulin_slowclock)
                                                   RegisterIntHandler (lagavulin_intvector)
                                                   WdtInit (lagavulin_misc)
                                                   i2cSlaveIsr (lagavulin_i2c)
                                                   i2cSlaveRomIsr (lagavulin_i2c)
                                                   nreswarmIsr (hostctrl_omap4430)
                                                   usr_doFullDet (mgLib)
           ?epilogue_A             6542            HostCtrlInit (hostctrl_common)

    -------------------------------------------------------------------------
  LIBRARY MODULE, NAME : exit

  SEGMENTS IN THE MODULE
  ======================
__aseg
  Relative segment, address: CODE 0000, align: 0
  Segment part 1. ROOT.
    -------------------------------------------------------------------------
<CODE,LCODE> 1 (was CODE)
  Relative segment, address: CODE 65C0 - 65C5 (0x6 bytes), align: 1
  Segment part 3.
           ENTRY                   ADDRESS         REF BY
           =====                   =======         ======
           exit                    65C0            __MAIN_CALL (__MAIN_CALL)
               CSTACK = 00000002 ( 00000000 )

    -------------------------------------------------------------------------
  LIBRARY MODULE, NAME : MUL_L02

  SEGMENTS IN THE MODULE
  ======================
<CODE,LCODE> 1 (was CODE)
  Relative segment, address: CODE 6586 - 659B (0x16 bytes), align: 1
  Segment part 1.
           ENTRY                   ADDRESS         REF BY
           =====                   =======         ======
           ?SS_MUL_L02             6586 
           ?US_MUL_L02             6586            ApiInit (lagavulin_api)
                                                   ApiRegRead (lagavulin_api)
                                                   ApiRegWrite (lagavulin_api)
                                                   ApiRegisterHandlers (lagavulin_api)
                                                   ApiStopReceived (lagavulin_api)
                                                   ExecuteCall (msgque)
                                                   GpioHandler (lagavulin_gpio)
                                                   GpioInit (lagavulin_gpio)
                                                   I2cRomInit (lagavulin_i2c)
                                                   InterruptControllerInit (lagavulin_intvector)
                                                   LagavulinRegRead (lagavulin_api)
                                                   PadRegisterIntHandler (lagavulin_gpio)
                                                   PmicIntCtrlInit (lagavulin_pmic_intctrl)
                                                   PmicInterruptDisable (lagavulin_pmic_intctrl)
                                                   PmicInterruptEnable (lagavulin_pmic_intctrl)
                                                   PmicInterruptHandlerReal (lagavulin_pmic_intctrl)
                                                   PmicRegisterIntHandler (lagavulin_pmic_intctrl)
                                                   ProcessUpdateCommand (lagavulin_updater)
                                                   QueueCallInt (msgque)
                                                   RegisterIntHandler (lagavulin_intvector)
                                                   RegisterTimerExpiry (timer_mux)
                                                   SetTimer (timer_mux)
                                                   StopTimer (timer_mux)
                                                   SupplySequenceRunInternal (hostctrl_common)
                                                   TimerInit (timer_mux)
                                                   expireMuxTimers (timer_mux)
                                                   getIsr (lagavulin_intvector)
                                                   hwInitI2c (lagavulin_i2c)
                                                   i2cIsrHandler (lagavulin_i2c)
                                                   i2cMasterIsr (lagavulin_i2c)
                                                   i2cSlaveDummyIsr (lagavulin_i2c)
                                                   i2cSlaveIsr (lagavulin_i2c)
                                                   i2cSlaveRomIsr (lagavulin_i2c)
                                                   unSetTimer (timer_mux)

    -------------------------------------------------------------------------
  LIBRARY MODULE, NAME : MUL_L03

  SEGMENTS IN THE MODULE
  ======================
<CODE,LCODE> 1 (was CODE)
  Relative segment, address: CODE 6548 - 656B (0x24 bytes), align: 1
  Segment part 1.
           ENTRY                   ADDRESS         REF BY
           =====                   =======         ======
           ?SL_MUL_L03             6548 
           ?UL_MUL_L03             6548            exeModelGauge (mgLib)

    -------------------------------------------------------------------------
  LIBRARY MODULE, NAME : UL_SHL_L03

  SEGMENTS IN THE MODULE
  ======================
<CODE,LCODE> 1 (was CODE)
  Relative segment, address: CODE 659C - 65A7 (0xc bytes), align: 1
  Segment part 1.
           ENTRY                   ADDRESS         REF BY
           =====                   =======         ======
           ?UL_SHL_L03             659C            GetHWTimerCountDword (lagavulin_timer)
                                                   exeModelGauge (mgLib)
                                                   initModelGauge (mgLib)

    -------------------------------------------------------------------------
  LIBRARY MODULE, NAME : SL_SHR_L03

  SEGMENTS IN THE MODULE
  ======================
<CODE,LCODE> 1 (was CODE)
  Relative segment, address: CODE 65A8 - 65B3 (0xc bytes), align: 1
  Segment part 1.
           ENTRY                   ADDRESS         REF BY
           =====                   =======         ======
           ?SL_SHR_L03             65A8            Segment part 85 (mgLib)
                                                   usr_doFullDet (mgLib)

    -------------------------------------------------------------------------
  LIBRARY MODULE, NAME : UL_SHR_L03

  SEGMENTS IN THE MODULE
  ======================
<CODE,LCODE> 1 (was CODE)
  Relative segment, address: CODE 65B4 - 65BF (0xc bytes), align: 1
  Segment part 1.
           ENTRY                   ADDRESS         REF BY
           =====                   =======         ======
           ?UL_SHR_L03             65B4            AdcRawCb (lagavulin_adc_hw)
                                                   Segment part 104 (mgLib)

    -------------------------------------------------------------------------
  LIBRARY MODULE, NAME : Q20_DivideRaw

  SEGMENTS IN THE MODULE
  ======================
__aseg
  Relative segment, address: CODE 0000, align: 0
  Segment part 1. ROOT.
    -------------------------------------------------------------------------
<CODE,LCODE> 1 (was CODE)
  Relative segment, address: CODE 64A2 - 64E3 (0x42 bytes), align: 1
  Segment part 2.
           ENTRY                   ADDRESS         REF BY
           =====                   =======         ======
           Q20_DivideRaw_add       64B8 
           Q20_DivideRaw_sub       64A2            ?UL_DIV_L03 (UL_DIV_L03)

    -------------------------------------------------------------------------
  LIBRARY MODULE, NAME : ?move_long_b

  SEGMENTS IN THE MODULE
  ======================
<CODE,LCODE> 1 (was CODE)
  Relative segment, address: CODE 6458 - 64A1 (0x4a bytes), align: 1
  Segment part 1.
           ENTRY                   ADDRESS         REF BY
           =====                   =======         ======
           ?move_long_b            6458            HostCtrlDisableSupplies (hostctrl_common)
                                                   HostCtrlInitiateReset (hostctrl_common)

    -------------------------------------------------------------------------
  LIBRARY MODULE, NAME : SL_DIV_L03

  SEGMENTS IN THE MODULE
  ======================
__aseg
  Relative segment, address: CODE 0000, align: 0
  Segment part 1. ROOT.
    -------------------------------------------------------------------------
<CODE,LCODE> 1 (was CODE)
  Relative segment, address: CODE 64E4 - 6521 (0x3e bytes), align: 1
  Segment part 2.
           ENTRY                   ADDRESS         REF BY
           =====                   =======         ======
           ?SL_DIV_L03             64E4            Segment part 48 (mgLib)

    -------------------------------------------------------------------------
  LIBRARY MODULE, NAME : UL_DIV_L03

  SEGMENTS IN THE MODULE
  ======================
__aseg
  Relative segment, address: CODE 0000, align: 0
  Segment part 1. ROOT.
    -------------------------------------------------------------------------
<CODE,LCODE> 1 (was CODE)
  Relative segment, address: CODE 656C - 6585 (0x1a bytes), align: 1
  Segment part 2.
           ENTRY                   ADDRESS         REF BY
           =====                   =======         ======
           ?UL_DIV_L03             656C            ?SL_DIV_L03 (SL_DIV_L03)
                                                   exeModelGauge (mgLib)




                ****************************************
                *                                      *
                *      SEGMENTS IN ADDRESS ORDER       *
                *                                      *
                ****************************************


SEGMENT              SPACE    START ADDRESS   END ADDRESS     SIZE  TYPE  ALIGN
=======              =====    =============   ===========     ====  ====  =====
__aseg               CODE                 0000                       rel    0
__ULDR_PASSWORD      CODE              3E00 - 3E07               8   rel    0
                     CODE              3E1E - 3E3F              22 
ULDR_SECTOR          CODE              4000 - 45D9             5DA   rel    1
INTVEC               CODE              6040 - 6043               4   rel    0
USR_MG_VECTOR        CODE              6044 - 6047               4   rel    0
INTVEC               CODE              6050 - 6053               4   rel    0
USR_MG_VECTOR        CODE              6054 - 605F               C   rel    0
INTVEC               CODE              6060 - 6063               4   rel    0
USR_MG_VECTOR        CODE              6064 - 606F               C   rel    0
INTVEC               CODE              6070 - 6073               4   rel    0
USR_MG_VECTOR        CODE              6074 - 607F               C   rel    0
INTVEC               CODE              6080 - 6083               4   rel    0
USR_MG_VECTOR        CODE              6084 - 608F               C   rel    0
INTVEC               CODE              6090 - 6093               4   rel    0
USR_MG_VECTOR        CODE              6094 - 609F               C   rel    0
INTVEC               CODE              60A0 - 60A3               4   rel    0
USR_MG_VECTOR        CODE              60A4 - 60AF               C   rel    0
INTVEC               CODE              60B0 - 60B3               4   rel    0
USR_MG_VECTOR        CODE              60B4 - 60BF               C   rel    0
INTVEC               CODE              60C0 - 60C3               4   rel    0
USR_MG_VECTOR        CODE              60C4 - 60CF               C   rel    0
INTVEC               CODE              60D0 - 60D3               4   rel    0
USR_MG_VECTOR        CODE              60D4 - 60DF               C   rel    0
INTVEC               CODE              60E0 - 60E3               4   rel    0
USR_MG_VECTOR        CODE              60E4 - 60EF               C   rel    0
INTVEC               CODE              60F0 - 60F3               4   rel    0
USR_MG_VECTOR        CODE              60F4 - 60FF               C   rel    0
INTVEC               CODE              6100 - 6103               4   rel    0
USR_MG_VECTOR        CODE                 6104                       rel    0
INTVEC               CODE              6110 - 6113               4   rel    0
USR_MG_VECTOR        CODE                 6114                       rel    0
INTVEC               CODE              6120 - 6123               4   rel    0
USR_MG_VECTOR        CODE                 6124                       rel    0
INTVEC               CODE              6130 - 6133               4   rel    0
USR_MG_VECTOR        CODE                 6134                       rel    0
RCODE                CODE                 6140                       rel    0
RCODE                CODE              6140 - 6187              48   rel    1
DATA16_C             CODE              6188 - 63AD             226   rel    1
DATA16_ID            CODE              63AE - 63F4              47   rel    1
<CODE> 1             CODE              63F5 - 6456              62   rel    0
<CODE,LCODE> 1       CODE              6458 - CA67            6610   rel    1
BOOT_IMAGE_INFO      CODE          00011FEA - 00011FFB          12   rel    1
APP_IMAGE_INFO       CODE          0001FFEA - 0001FFFB          12   rel    1
BOOT_LOADER_MSG      CODE          0001FFFC - 0001FFFF           4   rel    1
DATA16_AN            DATA              0002 - 008D              8C   rel    0
DATA16_I             DATA              00A2 - 00E8              47   rel    1
DATA16_Z             DATA              00EA - 0480             397   rel    1
DATA16_N             DATA              0482 - 048D               C   rel    1
CSTACK               DATA              1DCD - 1FC0             1F4   rel    0
DATA16_SFR           IDATA             0000 - 0000               1   rel    0
                     IDATA             0008 - 000E               7 
                     IDATA             0010 - 0010               1 
                     IDATA             0016 - 0019               4 
                     IDATA             001E - 001E               1 
                     IDATA             0020 - 0020               1 
                     IDATA             0022 - 0022               1 
                     IDATA             0024 - 0024               1 
                     IDATA             0040 - 0040               1 
                     IDATA             0048 - 0050               9 
                     IDATA             0056 - 0059               4 
                     IDATA             0060 - 0060               1 
                     IDATA             0062 - 0062               1 
                     IDATA             0064 - 0067               4 
                     IDATA             0080 - 0080               1 
                     IDATA             0082 - 008D               C 
                     IDATA             0090 - 0094               5 
                     IDATA             0096 - 0097               2 
                     IDATA             009A - 009B               2 
                     IDATA             0100 - 0104               5 
                     IDATA             0108 - 010A               3 
                     IDATA             0110 - 0111               2 
                     IDATA             0140 - 0140               1 
                     IDATA             0144 - 014B               8 
                     IDATA             020A - 020A               1 
                     IDATA             0210 - 0211               2 
                     IDATA             021C - 021C               1 
                     IDATA             021E - 021E               1 
DATA16_SFR           IDATA             0344 - 0345               2   rel    0

                ****************************************
                *                                      *
                *        END OF CROSS REFERENCE        *
                *                                      *
                ****************************************

 28 457 bytes of CODE  memory (+ 242 absolute )
  1 502 bytes of DATA  memory (+ 140 absolute )
      0 bytes of IDATA memory (+  85 absolute )

Errors: none
Warnings: none

